	.cpu cortex-m4
	.arch armv7e-m
	.fpu fpv4-sp-d16
	.eabi_attribute 27, 1
	.eabi_attribute 28, 1
	.eabi_attribute 20, 1
	.eabi_attribute 21, 1
	.eabi_attribute 23, 3
	.eabi_attribute 24, 1
	.eabi_attribute 25, 1
	.eabi_attribute 26, 1
	.eabi_attribute 30, 6
	.eabi_attribute 34, 1
	.eabi_attribute 38, 1
	.eabi_attribute 18, 4
	.file	"IEEE802154E.c"
	.text
.Ltext0:
	.section	.rodata.rreg_uriquery,"a"
	.align	2
	.type	rreg_uriquery, %object
	.size	rreg_uriquery, 6
rreg_uriquery:
	.ascii	"h=ucb\000"
	.section	.rodata.infoBoardname,"a"
	.align	2
	.type	infoBoardname, %object
	.size	infoBoardname, 9
infoBoardname:
	.ascii	"nRF52840\000"
	.section	.rodata.infouCName,"a"
	.align	2
	.type	infouCName, %object
	.size	infouCName, 9
infouCName:
	.ascii	"nRF52840\000"
	.section	.rodata.infoRadioName,"a"
	.align	2
	.type	infoRadioName, %object
	.size	infoRadioName, 13
infoRadioName:
	.ascii	"nRF52840 SoC\000"
	.section	.rodata.infoStackName,"a"
	.align	2
	.type	infoStackName, %object
	.size	infoStackName, 9
infoStackName:
	.ascii	"OpenWSN \000"
	.section	.rodata.chTemplate_default,"a"
	.align	2
	.type	chTemplate_default, %object
	.size	chTemplate_default, 16
chTemplate_default:
	.ascii	"\005\006\014\007\017\004\016\013\010\000\001\002\015"
	.ascii	"\003\011\012"
	.section	.rodata.ebIEsBytestream,"a"
	.align	2
	.type	ebIEsBytestream, %object
	.size	ebIEsBytestream, 28
ebIEsBytestream:
	.ascii	"\032\210\006\032\000\000\000\000\000\000\001\034\000"
	.ascii	"\001\310\000\012\033\001\000e\000\001\000\000\000\000"
	.ascii	"\017"
	.section	.rodata.linklocalprefix,"a"
	.align	2
	.type	linklocalprefix, %object
	.size	linklocalprefix, 8
linklocalprefix:
	.ascii	"\376\200\000\000\000\000\000\000"
	.section	.rodata.all_routers_multicast,"a"
	.align	2
	.type	all_routers_multicast, %object
	.size	all_routers_multicast, 16
all_routers_multicast:
	.ascii	"\377\002\000\000\000\000\000\000\000\000\000\000\000"
	.ascii	"\000\000\032"
	.global	ieee154e_vars
	.section	.bss.ieee154e_vars,"aw",%nobits
	.align	2
	.type	ieee154e_vars, %object
	.size	ieee154e_vars, 440
ieee154e_vars:
	.space	440
	.global	ieee154e_stats
	.section	.bss.ieee154e_stats,"aw",%nobits
	.align	2
	.type	ieee154e_stats, %object
	.size	ieee154e_stats, 15
ieee154e_stats:
	.space	15
	.global	ieee154e_dbg
	.section	.bss.ieee154e_dbg,"aw",%nobits
	.align	2
	.type	ieee154e_dbg, %object
	.size	ieee154e_dbg, 16
ieee154e_dbg:
	.space	16
	.section	.text.ieee154e_init,"ax",%progbits
	.align	1
	.global	ieee154e_init
	.syntax unified
	.thumb
	.thumb_func
	.type	ieee154e_init, %function
ieee154e_init:
.LFB115:
	.file 1 "C:\\Users\\16603\\Desktop\\HKUSTGZ\\IOTA5109-WSN\\openwsnProj\\mywsn\\openstack\\02a-MAClow\\IEEE802154E.c"
	.loc 1 169 26
	@ args = 0, pretend = 0, frame = 0
	@ frame_needed = 0, uses_anonymous_args = 0
	push	{r4, r5, lr}
.LCFI0:
	sub	sp, sp, #12
.LCFI1:
	.loc 1 172 5
	mov	r2, #440
	movs	r1, #0
	ldr	r0, .L4
	bl	memset
	.loc 1 173 5
	movs	r2, #16
	movs	r1, #0
	ldr	r0, .L4+4
	bl	memset
	.loc 1 179 33
	ldr	r3, .L4
	movs	r2, #0
	strb	r2, [r3, #382]
	.loc 1 181 32
	ldr	r3, .L4
	movs	r2, #1
	strb	r2, [r3, #413]
	.loc 1 182 37
	ldr	r3, .L4
	movs	r2, #0
	strb	r2, [r3, #414]
	.loc 1 183 32
	ldr	r3, .L4
	mov	r2, #656
	strh	r2, [r3, #418]	@ movhi
	.loc 1 184 35
	ldr	r3, .L4
	movs	r2, #1
	str	r2, [r3, #348]
	.loc 1 187 5
	ldr	r3, .L4
	ldr	r2, .L4+8
	add	r4, r3, #384
	mov	r3, r2
	ldm	r3, {r0, r1, r2, r3}
	stm	r4, {r0, r1, r2, r3}
	.loc 1 189 9
	bl	idmanager_getIsDAGroot
	mov	r3, r0
	.loc 1 189 8
	cmp	r3, #1
	bne	.L2
	.loc 1 190 9
	movs	r0, #1
	bl	changeIsSync
	b	.L3
.L2:
	.loc 1 192 9
	movs	r0, #0
	bl	changeIsSync
.L3:
	.loc 1 195 5
	bl	resetStats
	.loc 1 196 30
	ldr	r3, .L4+12
	movs	r2, #0
	strb	r2, [r3, #6]
	.loc 1 199 5
	bl	radio_rfOn
	.loc 1 203 5
	ldr	r0, .L4+16
	bl	radio_setStartFrameCb
	.loc 1 204 5
	ldr	r0, .L4+20
	bl	radio_setEndFrameCb
	.loc 1 206 29
	movs	r1, #0
	movs	r0, #1
	bl	opentimers_create
	mov	r3, r0
	mov	r2, r3
	.loc 1 206 27
	ldr	r3, .L4
	strb	r2, [r3, #420]
	.loc 1 207 5
	ldr	r3, .L4
	ldrb	r4, [r3, #420]	@ zero_extendqisi2
	.loc 1 209 26
	ldr	r3, .L4
	ldrh	r3, [r3, #418]
	.loc 1 207 5
	mov	r5, r3
	bl	sctimer_readCounter
	mov	r2, r0
	ldr	r3, .L4+24
	str	r3, [sp]
	movs	r3, #1
	mov	r1, r5
	mov	r0, r4
	bl	opentimers_scheduleAbsolute
	.loc 1 214 5
	bl	IEEE802154_security_init
	.loc 1 215 42
	movs	r1, #0
	movs	r0, #0
	bl	opentimers_create
	mov	r3, r0
	mov	r2, r3
	.loc 1 215 40
	ldr	r3, .L4
	strb	r2, [r3, #428]
	.loc 1 216 1
	nop
	add	sp, sp, #12
.LCFI2:
	@ sp needed
	pop	{r4, r5, pc}
.L5:
	.align	2
.L4:
	.word	ieee154e_vars
	.word	ieee154e_dbg
	.word	chTemplate_default
	.word	ieee154e_stats
	.word	ieee154e_startOfFrame
	.word	ieee154e_endOfFrame
	.word	isr_ieee154e_newSlot
.LFE115:
	.size	ieee154e_init, .-ieee154e_init
	.section	.text.ieee154e_asnDiff,"ax",%progbits
	.align	1
	.global	ieee154e_asnDiff
	.syntax unified
	.thumb
	.thumb_func
	.type	ieee154e_asnDiff, %function
ieee154e_asnDiff:
.LFB116:
	.loc 1 227 51
	@ args = 0, pretend = 0, frame = 16
	@ frame_needed = 0, uses_anonymous_args = 0
	@ link register save eliminated.
	sub	sp, sp, #16
.LCFI3:
	str	r0, [sp, #4]
.LBB10:
.LBB11:
	.file 2 "../../bsp/boards/nrf52840_dk/sdk/cmsis_gcc.h"
	.loc 2 209 3
	.syntax unified
@ 209 "../../bsp/boards/nrf52840_dk/sdk/cmsis_gcc.h" 1
	cpsid i
@ 0 "" 2
	.loc 2 210 1
	.thumb
	.syntax unified
	nop
.LBE11:
.LBE10:
	.loc 1 231 26
	ldr	r3, .L12
	ldrb	r2, [r3]	@ zero_extendqisi2
	.loc 1 231 43
	ldr	r3, [sp, #4]
	ldrb	r3, [r3]	@ zero_extendqisi2
	.loc 1 231 8
	cmp	r2, r3
	beq	.L7
.LBB12:
.LBB13:
	.loc 2 198 3
	.syntax unified
@ 198 "../../bsp/boards/nrf52840_dk/sdk/cmsis_gcc.h" 1
	cpsie i
@ 0 "" 2
	.loc 2 199 1
	.thumb
	.syntax unified
	nop
.LBE13:
.LBE12:
	.loc 1 233 16
	mov	r3, #-1
	b	.L8
.L7:
	.loc 1 236 10
	movs	r3, #0
	str	r3, [sp, #12]
	.loc 1 237 26
	ldr	r3, .L12
	ldrh	r3, [r3, #1]	@ unaligned
	uxth	r2, r3
	.loc 1 237 48
	ldr	r3, [sp, #4]
	ldrh	r3, [r3, #1]	@ unaligned
	uxth	r3, r3
	.loc 1 237 8
	cmp	r2, r3
	bne	.L9
.LBB14:
.LBB15:
	.loc 2 198 3
	.syntax unified
@ 198 "../../bsp/boards/nrf52840_dk/sdk/cmsis_gcc.h" 1
	cpsie i
@ 0 "" 2
	.loc 2 199 1
	.thumb
	.syntax unified
	nop
.LBE15:
.LBE14:
	.loc 1 239 33
	ldr	r3, .L12
	ldrh	r3, [r3, #3]	@ unaligned
	uxth	r3, r3
	mov	r2, r3
	.loc 1 239 54
	ldr	r3, [sp, #4]
	ldrh	r3, [r3, #3]	@ unaligned
	uxth	r3, r3
	.loc 1 239 45
	subs	r3, r2, r3
	b	.L8
.L9:
	.loc 1 240 33
	ldr	r3, .L12
	ldrh	r3, [r3, #1]	@ unaligned
	uxth	r3, r3
	mov	r2, r3
	.loc 1 240 54
	ldr	r3, [sp, #4]
	ldrh	r3, [r3, #1]	@ unaligned
	uxth	r3, r3
	.loc 1 240 45
	subs	r3, r2, r3
	.loc 1 240 15
	cmp	r3, #1
	bne	.L10
	.loc 1 241 33
	ldr	r3, .L12
	ldrh	r3, [r3, #3]	@ unaligned
	uxth	r3, r3
	.loc 1 241 14
	str	r3, [sp, #12]
	.loc 1 242 33
	ldr	r3, [sp, #4]
	ldrh	r3, [r3, #3]	@ unaligned
	uxth	r3, r3
	.loc 1 242 14
	mov	r2, r3
	ldr	r3, [sp, #12]
	subs	r3, r3, r2
	add	r3, r3, #65280
	adds	r3, r3, #255
	str	r3, [sp, #12]
	.loc 1 243 14
	ldr	r3, [sp, #12]
	adds	r3, r3, #1
	str	r3, [sp, #12]
	b	.L11
.L10:
	.loc 1 245 14
	mov	r3, #-1
	str	r3, [sp, #12]
.L11:
.LBB16:
.LBB17:
	.loc 2 198 3
	.syntax unified
@ 198 "../../bsp/boards/nrf52840_dk/sdk/cmsis_gcc.h" 1
	cpsie i
@ 0 "" 2
	.loc 2 199 1
	.thumb
	.syntax unified
	nop
.LBE17:
.LBE16:
	.loc 1 248 12
	ldr	r3, [sp, #12]
.L8:
	.loc 1 249 1
	mov	r0, r3
	add	sp, sp, #16
.LCFI4:
	@ sp needed
	bx	lr
.L13:
	.align	2
.L12:
	.word	ieee154e_vars
.LFE116:
	.size	ieee154e_asnDiff, .-ieee154e_asnDiff
	.section	.text.isr_ieee154e_newSlot,"ax",%progbits
	.align	1
	.global	isr_ieee154e_newSlot
	.syntax unified
	.thumb
	.thumb_func
	.type	isr_ieee154e_newSlot, %function
isr_ieee154e_newSlot:
.LFB117:
	.loc 1 330 47
	@ args = 0, pretend = 0, frame = 8
	@ frame_needed = 0, uses_anonymous_args = 0
	push	{lr}
.LCFI5:
	sub	sp, sp, #20
.LCFI6:
	mov	r3, r0
	strb	r3, [sp, #15]
	.loc 1 332 42
	bl	opentimers_getCurrentCompareValue
	mov	r3, r0
	.loc 1 332 40
	ldr	r2, .L18
	str	r3, [r2, #424]
	.loc 1 334 5
	ldr	r3, .L18
	ldrb	r0, [r3, #420]	@ zero_extendqisi2
	ldr	r3, .L18
	ldr	r2, [r3, #424]
	ldr	r3, .L18+4
	str	r3, [sp]
	movs	r3, #1
	mov	r1, #656
	bl	opentimers_scheduleAbsolute
	.loc 1 341 32
	ldr	r3, .L18
	mov	r2, #656
	strh	r2, [r3, #418]	@ movhi
	.loc 1 343 22
	ldr	r3, .L18
	ldrb	r3, [r3, #16]	@ zero_extendqisi2
	.loc 1 343 8
	cmp	r3, #0
	bne	.L15
	.loc 1 344 13
	bl	idmanager_getIsDAGroot
	mov	r3, r0
	.loc 1 344 12
	cmp	r3, #1
	bne	.L16
	.loc 1 345 13
	movs	r0, #1
	bl	changeIsSync
	.loc 1 346 13
	bl	ieee154e_resetAsn
	.loc 1 347 50
	bl	schedule_getNextActiveSlotOffset
	mov	r3, r0
	mov	r2, r3
	.loc 1 347 48
	ldr	r3, .L18
	strh	r2, [r3, #8]	@ movhi
	b	.L17
.L16:
	.loc 1 349 13
	bl	activity_synchronize_newSlot
	b	.L17
.L15:
	.loc 1 356 9
	bl	activity_ti1ORri1
.L17:
	.loc 1 358 17
	ldr	r3, .L18+8
	ldr	r3, [r3]
	.loc 1 358 29
	adds	r3, r3, #1
	ldr	r2, .L18+8
	str	r3, [r2]
	.loc 1 359 1
	nop
	add	sp, sp, #20
.LCFI7:
	@ sp needed
	ldr	pc, [sp], #4
.L19:
	.align	2
.L18:
	.word	ieee154e_vars
	.word	isr_ieee154e_newSlot
	.word	ieee154e_dbg
.LFE117:
	.size	isr_ieee154e_newSlot, .-isr_ieee154e_newSlot
	.section	.text.isr_ieee154e_timer,"ax",%progbits
	.align	1
	.global	isr_ieee154e_timer
	.syntax unified
	.thumb
	.thumb_func
	.type	isr_ieee154e_timer, %function
isr_ieee154e_timer:
.LFB118:
	.loc 1 366 45
	@ args = 0, pretend = 0, frame = 8
	@ frame_needed = 0, uses_anonymous_args = 0
	push	{lr}
.LCFI8:
	sub	sp, sp, #20
.LCFI9:
	mov	r3, r0
	strb	r3, [sp, #15]
	.loc 1 367 26
	ldr	r3, .L46
	ldrb	r3, [r3, #352]	@ zero_extendqisi2
	.loc 1 367 5
	subs	r3, r3, #2
	cmp	r3, #22
	bhi	.L21
	adr	r2, .L23
	ldr	pc, [r2, r3, lsl #2]
	.p2align 2
.L23:
	.word	.L45+1
	.word	.L21+1
	.word	.L42+1
	.word	.L41+1
	.word	.L40+1
	.word	.L39+1
	.word	.L38+1
	.word	.L37+1
	.word	.L36+1
	.word	.L35+1
	.word	.L34+1
	.word	.L33+1
	.word	.L21+1
	.word	.L32+1
	.word	.L31+1
	.word	.L30+1
	.word	.L29+1
	.word	.L28+1
	.word	.L27+1
	.word	.L26+1
	.word	.L25+1
	.word	.L24+1
	.word	.L22+1
	.p2align 1
.L42:
	.loc 1 369 13
	bl	activity_ti2
	.loc 1 370 13
	b	.L44
.L41:
	.loc 1 372 13
	bl	activity_tie1
	.loc 1 373 13
	b	.L44
.L40:
	.loc 1 375 13
	bl	activity_ti3
	.loc 1 376 13
	b	.L44
.L39:
	.loc 1 378 13
	bl	activity_tie2
	.loc 1 379 13
	b	.L44
.L38:
	.loc 1 381 13
	bl	activity_tie3
	.loc 1 382 13
	b	.L44
.L37:
	.loc 1 384 13
	bl	activity_ti6
	.loc 1 385 13
	b	.L44
.L36:
	.loc 1 387 13
	bl	activity_tie4
	.loc 1 388 13
	b	.L44
.L35:
	.loc 1 390 13
	bl	activity_ti7
	.loc 1 391 13
	b	.L44
.L34:
	.loc 1 393 13
	bl	activity_tie5
	.loc 1 394 13
	b	.L44
.L33:
	.loc 1 396 13
	bl	activity_tie6
	.loc 1 397 13
	b	.L44
.L32:
	.loc 1 399 13
	bl	activity_ri2
	.loc 1 400 13
	b	.L44
.L31:
	.loc 1 402 13
	bl	activity_rie1
	.loc 1 403 13
	b	.L44
.L30:
	.loc 1 405 13
	bl	activity_ri3
	.loc 1 406 13
	b	.L44
.L29:
	.loc 1 408 13
	bl	activity_rie2
	.loc 1 409 13
	b	.L44
.L28:
	.loc 1 411 13
	bl	activity_rie3
	.loc 1 412 13
	b	.L44
.L27:
	.loc 1 414 13
	bl	activity_ri6
	.loc 1 415 13
	b	.L44
.L26:
	.loc 1 417 13
	bl	activity_rie4
	.loc 1 418 13
	b	.L44
.L25:
	.loc 1 420 13
	bl	activity_ri7
	.loc 1 421 13
	b	.L44
.L24:
	.loc 1 423 13
	bl	activity_rie5
	.loc 1 424 13
	b	.L44
.L22:
	.loc 1 426 13
	bl	activity_rie6
	.loc 1 427 13
	b	.L44
.L21:
	.loc 1 432 13
	ldr	r3, .L46
	ldrb	r3, [r3, #352]	@ zero_extendqisi2
	uxth	r2, r3
	ldr	r3, .L46
	ldrh	r3, [r3, #6]
	str	r3, [sp]
	mov	r3, r2
	movs	r2, #52
	movs	r1, #9
	movs	r0, #1
	bl	openserial_printLog
	.loc 1 436 13
	bl	endSlot
	.loc 1 437 13
	b	.L44
.L45:
	.loc 1 429 13
	nop
.L44:
	.loc 1 439 17
	ldr	r3, .L46+4
	ldr	r3, [r3, #4]
	.loc 1 439 27
	adds	r3, r3, #1
	ldr	r2, .L46+4
	str	r3, [r2, #4]
	.loc 1 440 1
	nop
	add	sp, sp, #20
.LCFI10:
	@ sp needed
	ldr	pc, [sp], #4
.L47:
	.align	2
.L46:
	.word	ieee154e_vars
	.word	ieee154e_dbg
.LFE118:
	.size	isr_ieee154e_timer, .-isr_ieee154e_timer
	.section	.text.isr_ieee154e_inhibitStart,"ax",%progbits
	.align	1
	.global	isr_ieee154e_inhibitStart
	.syntax unified
	.thumb
	.thumb_func
	.type	isr_ieee154e_inhibitStart, %function
isr_ieee154e_inhibitStart:
.LFB119:
	.loc 1 449 52
	@ args = 0, pretend = 0, frame = 8
	@ frame_needed = 0, uses_anonymous_args = 0
	push	{lr}
.LCFI11:
	sub	sp, sp, #12
.LCFI12:
	mov	r3, r0
	strb	r3, [sp, #7]
	.loc 1 451 5
	bl	openserial_inhibitStart
	.loc 1 452 1
	nop
	add	sp, sp, #12
.LCFI13:
	@ sp needed
	ldr	pc, [sp], #4
.LFE119:
	.size	isr_ieee154e_inhibitStart, .-isr_ieee154e_inhibitStart
	.section	.text.ieee154e_startOfFrame,"ax",%progbits
	.align	1
	.global	ieee154e_startOfFrame
	.syntax unified
	.thumb
	.thumb_func
	.type	ieee154e_startOfFrame, %function
ieee154e_startOfFrame:
.LFB120:
	.loc 1 459 59
	@ args = 0, pretend = 0, frame = 16
	@ frame_needed = 0, uses_anonymous_args = 0
	push	{lr}
.LCFI14:
	sub	sp, sp, #28
.LCFI15:
	str	r0, [sp, #12]
	.loc 1 460 66
	ldr	r3, .L58
	ldr	r3, [r3, #424]
	.loc 1 460 22
	ldr	r2, [sp, #12]
	subs	r3, r2, r3
	str	r3, [sp, #20]
	.loc 1 461 22
	ldr	r3, .L58
	ldrb	r3, [r3, #16]	@ zero_extendqisi2
	.loc 1 461 8
	cmp	r3, #0
	bne	.L50
	.loc 1 462 9
	ldr	r0, [sp, #20]
	bl	activity_synchronize_startOfFrame
	b	.L51
.L50:
	.loc 1 464 30
	ldr	r3, .L58
	ldrb	r3, [r3, #352]	@ zero_extendqisi2
	.loc 1 464 9
	subs	r3, r3, #7
	cmp	r3, #16
	bhi	.L52
	adr	r2, .L54
	ldr	pc, [r2, r3, lsl #2]
	.p2align 2
.L54:
	.word	.L57+1
	.word	.L52+1
	.word	.L52+1
	.word	.L52+1
	.word	.L56+1
	.word	.L56+1
	.word	.L52+1
	.word	.L52+1
	.word	.L52+1
	.word	.L52+1
	.word	.L55+1
	.word	.L55+1
	.word	.L52+1
	.word	.L52+1
	.word	.L52+1
	.word	.L52+1
	.word	.L53+1
	.p2align 1
.L57:
	.loc 1 466 17
	ldr	r0, [sp, #20]
	bl	activity_ti4
	.loc 1 467 17
	b	.L51
.L56:
	.loc 1 476 17
	ldr	r0, [sp, #20]
	bl	activity_ti8
	.loc 1 477 17
	b	.L51
.L55:
	.loc 1 482 17
	ldr	r0, [sp, #20]
	bl	activity_ri4
	.loc 1 483 17
	b	.L51
.L53:
	.loc 1 485 17
	ldr	r0, [sp, #20]
	bl	activity_ri8
	.loc 1 486 17
	b	.L51
.L52:
	.loc 1 489 17
	ldr	r3, .L58
	ldrb	r3, [r3, #352]	@ zero_extendqisi2
	uxth	r2, r3
	ldr	r3, .L58
	ldrh	r3, [r3, #6]
	str	r3, [sp]
	mov	r3, r2
	movs	r2, #53
	movs	r1, #9
	movs	r0, #2
	bl	openserial_printLog
	.loc 1 493 17
	bl	endSlot
	.loc 1 494 17
	nop
.L51:
	.loc 1 497 17
	ldr	r3, .L58+4
	ldr	r3, [r3, #8]
	.loc 1 497 34
	adds	r3, r3, #1
	ldr	r2, .L58+4
	str	r3, [r2, #8]
	.loc 1 498 1
	nop
	add	sp, sp, #28
.LCFI16:
	@ sp needed
	ldr	pc, [sp], #4
.L59:
	.align	2
.L58:
	.word	ieee154e_vars
	.word	ieee154e_dbg
.LFE120:
	.size	ieee154e_startOfFrame, .-ieee154e_startOfFrame
	.section	.text.ieee154e_endOfFrame,"ax",%progbits
	.align	1
	.global	ieee154e_endOfFrame
	.syntax unified
	.thumb
	.thumb_func
	.type	ieee154e_endOfFrame, %function
ieee154e_endOfFrame:
.LFB121:
	.loc 1 505 57
	@ args = 0, pretend = 0, frame = 16
	@ frame_needed = 0, uses_anonymous_args = 0
	push	{lr}
.LCFI17:
	sub	sp, sp, #28
.LCFI18:
	str	r0, [sp, #12]
	.loc 1 506 66
	ldr	r3, .L69
	ldr	r3, [r3, #424]
	.loc 1 506 22
	ldr	r2, [sp, #12]
	subs	r3, r2, r3
	str	r3, [sp, #20]
	.loc 1 507 22
	ldr	r3, .L69
	ldrb	r3, [r3, #16]	@ zero_extendqisi2
	.loc 1 507 8
	cmp	r3, #0
	bne	.L61
	.loc 1 508 9
	ldr	r0, [sp, #20]
	bl	activity_synchronize_endOfFrame
	b	.L62
.L61:
	.loc 1 510 30
	ldr	r3, .L69
	ldrb	r3, [r3, #352]	@ zero_extendqisi2
	.loc 1 510 9
	subs	r3, r3, #8
	cmp	r3, #16
	bhi	.L63
	adr	r2, .L65
	ldr	pc, [r2, r3, lsl #2]
	.p2align 2
.L65:
	.word	.L68+1
	.word	.L63+1
	.word	.L63+1
	.word	.L63+1
	.word	.L63+1
	.word	.L67+1
	.word	.L63+1
	.word	.L63+1
	.word	.L63+1
	.word	.L63+1
	.word	.L63+1
	.word	.L66+1
	.word	.L63+1
	.word	.L63+1
	.word	.L63+1
	.word	.L63+1
	.word	.L64+1
	.p2align 1
.L68:
	.loc 1 512 17
	ldr	r0, [sp, #20]
	bl	activity_ti5
	.loc 1 513 17
	b	.L62
.L67:
	.loc 1 515 17
	ldr	r0, [sp, #20]
	bl	activity_ti9
	.loc 1 516 17
	b	.L62
.L66:
	.loc 1 518 17
	ldr	r0, [sp, #20]
	bl	activity_ri5
	.loc 1 519 17
	b	.L62
.L64:
	.loc 1 521 17
	ldr	r0, [sp, #20]
	bl	activity_ri9
	.loc 1 522 17
	b	.L62
.L63:
	.loc 1 525 17
	ldr	r3, .L69
	ldrb	r3, [r3, #352]	@ zero_extendqisi2
	uxth	r2, r3
	ldr	r3, .L69
	ldrh	r3, [r3, #6]
	str	r3, [sp]
	mov	r3, r2
	movs	r2, #54
	movs	r1, #9
	movs	r0, #2
	bl	openserial_printLog
	.loc 1 530 17
	bl	endSlot
	.loc 1 531 17
	nop
.L62:
	.loc 1 534 17
	ldr	r3, .L69+4
	ldr	r3, [r3, #12]
	.loc 1 534 32
	adds	r3, r3, #1
	ldr	r2, .L69+4
	str	r3, [r2, #12]
	.loc 1 535 1
	nop
	add	sp, sp, #28
.LCFI19:
	@ sp needed
	ldr	pc, [sp], #4
.L70:
	.align	2
.L69:
	.word	ieee154e_vars
	.word	ieee154e_dbg
.LFE121:
	.size	ieee154e_endOfFrame, .-ieee154e_endOfFrame
	.section	.text.debugPrint_asn,"ax",%progbits
	.align	1
	.global	debugPrint_asn
	.syntax unified
	.thumb
	.thumb_func
	.type	debugPrint_asn, %function
debugPrint_asn:
.LFB122:
	.loc 1 547 27
	@ args = 0, pretend = 0, frame = 8
	@ frame_needed = 0, uses_anonymous_args = 0
	push	{lr}
.LCFI20:
	sub	sp, sp, #12
.LCFI21:
	.loc 1 549 37
	ldr	r3, .L73
	ldrb	r3, [r3]	@ zero_extendqisi2
	.loc 1 549 18
	strb	r3, [sp]
	.loc 1 550 42
	ldr	r3, .L73
	ldrh	r3, [r3, #1]	@ unaligned
	uxth	r3, r3
	.loc 1 550 23
	strh	r3, [sp, #1]	@ unaligned
	.loc 1 551 42
	ldr	r3, .L73
	ldrh	r3, [r3, #3]	@ unaligned
	uxth	r3, r3
	.loc 1 551 23
	strh	r3, [sp, #3]	@ unaligned
	.loc 1 552 5
	mov	r3, sp
	movs	r2, #5
	mov	r1, r3
	movs	r0, #4
	bl	openserial_printStatus
	.loc 1 553 12
	movs	r3, #1
	.loc 1 554 1
	mov	r0, r3
	add	sp, sp, #12
.LCFI22:
	@ sp needed
	ldr	pc, [sp], #4
.L74:
	.align	2
.L73:
	.word	ieee154e_vars
.LFE122:
	.size	debugPrint_asn, .-debugPrint_asn
	.section	.text.debugPrint_isSync,"ax",%progbits
	.align	1
	.global	debugPrint_isSync
	.syntax unified
	.thumb
	.thumb_func
	.type	debugPrint_isSync, %function
debugPrint_isSync:
.LFB123:
	.loc 1 564 30
	@ args = 0, pretend = 0, frame = 8
	@ frame_needed = 0, uses_anonymous_args = 0
	push	{lr}
.LCFI23:
	sub	sp, sp, #12
.LCFI24:
	.loc 1 565 13
	movs	r3, #0
	strb	r3, [sp, #7]
	.loc 1 566 27
	ldr	r3, .L77
	ldrb	r3, [r3, #16]	@ zero_extendqisi2
	.loc 1 566 12
	strb	r3, [sp, #7]
	.loc 1 567 5
	add	r3, sp, #7
	movs	r2, #1
	mov	r1, r3
	movs	r0, #0
	bl	openserial_printStatus
	.loc 1 568 12
	movs	r3, #1
	.loc 1 569 1
	mov	r0, r3
	add	sp, sp, #12
.LCFI25:
	@ sp needed
	ldr	pc, [sp], #4
.L78:
	.align	2
.L77:
	.word	ieee154e_vars
.LFE123:
	.size	debugPrint_isSync, .-debugPrint_isSync
	.section	.text.debugPrint_macStats,"ax",%progbits
	.align	1
	.global	debugPrint_macStats
	.syntax unified
	.thumb
	.thumb_func
	.type	debugPrint_macStats, %function
debugPrint_macStats:
.LFB124:
	.loc 1 579 32
	@ args = 0, pretend = 0, frame = 0
	@ frame_needed = 0, uses_anonymous_args = 0
	push	{r3, lr}
.LCFI26:
	.loc 1 581 5
	movs	r2, #15
	ldr	r1, .L81
	movs	r0, #5
	bl	openserial_printStatus
	.loc 1 582 12
	movs	r3, #1
	.loc 1 583 1
	mov	r0, r3
	pop	{r3, pc}
.L82:
	.align	2
.L81:
	.word	ieee154e_stats
.LFE124:
	.size	debugPrint_macStats, .-debugPrint_macStats
	.section	.text.activity_synchronize_newSlot,"ax",%progbits
	.align	1
	.global	activity_synchronize_newSlot
	.syntax unified
	.thumb
	.thumb_func
	.type	activity_synchronize_newSlot, %function
activity_synchronize_newSlot:
.LFB125:
	.loc 1 589 53
	@ args = 0, pretend = 0, frame = 0
	@ frame_needed = 0, uses_anonymous_args = 0
	push	{lr}
.LCFI27:
	sub	sp, sp, #12
.LCFI28:
	.loc 1 592 22
	ldr	r3, .L91
	ldrb	r3, [r3, #352]	@ zero_extendqisi2
	.loc 1 592 8
	cmp	r3, #2
	beq	.L90
	.loc 1 596 33
	bl	sctimer_readCounter
	mov	r3, r0
	.loc 1 596 31
	ldr	r2, .L91
	str	r3, [r2, #404]
	.loc 1 597 35
	ldr	r3, .L91
	movs	r2, #1
	strb	r2, [r3, #412]
	.loc 1 601 22
	ldr	r3, .L91
	ldrb	r3, [r3, #352]	@ zero_extendqisi2
	.loc 1 601 8
	cmp	r3, #1
	beq	.L86
	.loc 1 603 9
	movs	r0, #1
	bl	changeState
	.loc 1 606 9
	bl	radio_rfOff
	.loc 1 612 31
	bl	openrandom_get16b
	mov	r3, r0
	.loc 1 612 51
	uxtb	r3, r3
	and	r3, r3, #15
	uxtb	r3, r3
	.loc 1 612 59
	adds	r3, r3, #11
	uxtb	r2, r3
	.loc 1 612 28
	ldr	r3, .L91
	strb	r2, [r3, #380]
	.loc 1 616 9
	ldr	r3, .L91
	ldrb	r3, [r3, #380]	@ zero_extendqisi2
	movs	r1, #2
	mov	r0, r3
	bl	radio_setFrequency
	.loc 1 622 9
	bl	radio_rxEnable
	.loc 1 623 9
	bl	radio_rxNow
	b	.L87
.L86:
	.loc 1 626 34
	ldr	r3, .L91+4
	ldr	r3, [r3, #7]	@ unaligned
	.loc 1 626 50
	ldr	r2, .L91
	ldrh	r2, [r2, #418]
	.loc 1 626 34
	add	r3, r3, r2
	ldr	r2, .L91+4
	str	r3, [r2, #7]	@ unaligned
	.loc 1 627 37
	ldr	r3, .L91+4
	ldr	r3, [r3, #11]	@ unaligned
	.loc 1 627 53
	ldr	r2, .L91
	ldrh	r2, [r2, #418]
	.loc 1 627 37
	add	r3, r3, r2
	ldr	r2, .L91+4
	str	r3, [r2, #11]	@ unaligned
	.loc 1 632 30
	ldr	r3, .L91
	ldrh	r3, [r3, #3]	@ unaligned
	uxth	r2, r3
	.loc 1 632 72
	ldr	r3, .L91+8
	umull	r1, r3, r3, r2
	lsrs	r1, r3, #7
	mov	r3, r1
	lsls	r3, r3, #2
	add	r3, r3, r1
	lsls	r3, r3, #5
	subs	r3, r2, r3
	uxth	r3, r3
	.loc 1 632 12
	cmp	r3, #0
	bne	.L88
	.loc 1 634 13
	bl	radio_rfOff
	.loc 1 640 35
	bl	openrandom_get16b
	mov	r3, r0
	.loc 1 640 55
	uxtb	r3, r3
	and	r3, r3, #15
	uxtb	r3, r3
	.loc 1 640 63
	adds	r3, r3, #11
	uxtb	r2, r3
	.loc 1 640 32
	ldr	r3, .L91
	strb	r2, [r3, #380]
	.loc 1 644 13
	ldr	r3, .L91
	ldrb	r3, [r3, #380]	@ zero_extendqisi2
	movs	r1, #2
	mov	r0, r3
	bl	radio_setFrequency
.L88:
	.loc 1 648 9
	bl	radio_rxEnable
	.loc 1 649 9
	bl	radio_rxNow
.L87:
	.loc 1 654 23
	ldr	r3, .L91
	ldrb	r3, [r3, #352]	@ zero_extendqisi2
	.loc 1 654 8
	cmp	r3, #1
	bne	.L89
	.loc 1 654 64 discriminator 1
	ldr	r3, .L91
	ldrb	r3, [r3, #383]	@ zero_extendqisi2
	.loc 1 654 47 discriminator 1
	cmp	r3, #1
	bne	.L89
	.loc 1 656 9
	bl	radio_rfOff
	.loc 1 659 30
	ldr	r3, .L91
	ldrb	r3, [r3, #382]	@ zero_extendqisi2
	mov	r0, r3
	bl	calculateFrequency
	mov	r3, r0
	mov	r2, r3
	.loc 1 659 28
	ldr	r3, .L91
	strb	r2, [r3, #380]
	.loc 1 662 9
	ldr	r3, .L91
	ldrb	r3, [r3, #380]	@ zero_extendqisi2
	movs	r1, #2
	mov	r0, r3
	bl	radio_setFrequency
	.loc 1 668 9
	bl	radio_rxEnable
	.loc 1 669 9
	bl	radio_rxNow
	.loc 1 670 44
	ldr	r3, .L91
	movs	r2, #0
	strb	r2, [r3, #383]
.L89:
	.loc 1 674 22
	ldr	r3, .L91
	ldrh	r3, [r3, #3]	@ unaligned
	uxth	r3, r3
	.loc 1 674 33
	adds	r3, r3, #1
	uxth	r2, r3
	ldr	r3, .L91
	strh	r2, [r3, #3]	@ unaligned
	.loc 1 676 5
	ldr	r3, .L91
	ldrb	r0, [r3, #428]	@ zero_extendqisi2
	.loc 1 678 13
	ldr	r3, .L91
	ldrh	r3, [r3, #418]
	subs	r3, r3, #33
	.loc 1 676 5
	mov	r1, r3
	ldr	r3, .L91
	ldr	r2, [r3, #424]
	ldr	r3, .L91+12
	str	r3, [sp]
	movs	r3, #1
	bl	opentimers_scheduleAbsolute
	.loc 1 684 5
	bl	openserial_inhibitStop
	b	.L83
.L90:
	.loc 1 593 9
	nop
.L83:
	.loc 1 685 1
	add	sp, sp, #12
.LCFI29:
	@ sp needed
	ldr	pc, [sp], #4
.L92:
	.align	2
.L91:
	.word	ieee154e_vars
	.word	ieee154e_stats
	.word	-858993459
	.word	isr_ieee154e_inhibitStart
.LFE125:
	.size	activity_synchronize_newSlot, .-activity_synchronize_newSlot
	.section	.text.activity_synchronize_startOfFrame,"ax",%progbits
	.align	1
	.global	activity_synchronize_startOfFrame
	.syntax unified
	.thumb
	.thumb_func
	.type	activity_synchronize_startOfFrame, %function
activity_synchronize_startOfFrame:
.LFB126:
	.loc 1 687 83
	@ args = 0, pretend = 0, frame = 8
	@ frame_needed = 0, uses_anonymous_args = 0
	push	{lr}
.LCFI30:
	sub	sp, sp, #12
.LCFI31:
	str	r0, [sp, #4]
	.loc 1 690 22
	ldr	r3, .L97
	ldrb	r3, [r3, #352]	@ zero_extendqisi2
	.loc 1 690 8
	cmp	r3, #1
	bne	.L96
	.loc 1 695 5
	bl	openserial_inhibitStart
	.loc 1 698 5
	movs	r0, #2
	bl	changeState
	.loc 1 703 36
	ldr	r2, .L97
	ldr	r3, [sp, #4]
	str	r3, [r2, #372]
	.loc 1 706 36
	ldr	r2, .L97
	ldr	r3, [sp, #4]
	str	r3, [r2, #376]
	b	.L93
.L96:
	.loc 1 691 9
	nop
.L93:
	.loc 1 707 1
	add	sp, sp, #12
.LCFI32:
	@ sp needed
	ldr	pc, [sp], #4
.L98:
	.align	2
.L97:
	.word	ieee154e_vars
.LFE126:
	.size	activity_synchronize_startOfFrame, .-activity_synchronize_startOfFrame
	.section	.text.activity_synchronize_endOfFrame,"ax",%progbits
	.align	1
	.global	activity_synchronize_endOfFrame
	.syntax unified
	.thumb
	.thumb_func
	.type	activity_synchronize_endOfFrame, %function
activity_synchronize_endOfFrame:
.LFB127:
	.loc 1 709 81
	@ args = 0, pretend = 0, frame = 80
	@ frame_needed = 0, uses_anonymous_args = 0
	push	{r4, r5, lr}
.LCFI33:
	sub	sp, sp, #92
.LCFI34:
	str	r0, [sp, #12]
	.loc 1 714 22
	ldr	r3, .L119
	ldrb	r3, [r3, #352]	@ zero_extendqisi2
	.loc 1 714 8
	cmp	r3, #2
	beq	.L100
	.loc 1 716 9
	ldr	r3, .L119
	ldrb	r3, [r3, #352]	@ zero_extendqisi2
	uxth	r3, r3
	movs	r2, #0
	str	r2, [sp]
	movs	r2, #50
	movs	r1, #9
	movs	r0, #2
	bl	openserial_printLog
	.loc 1 720 9
	b	.L99
.L100:
	.loc 1 724 5
	movs	r0, #3
	bl	changeState
	.loc 1 727 34
	movs	r0, #9
	bl	openqueue_getFreePacketBuffer
	mov	r3, r0
	.loc 1 727 32
	ldr	r2, .L119
	str	r3, [r2, #360]
	.loc 1 728 22
	ldr	r3, .L119
	ldr	r3, [r3, #360]
	.loc 1 728 8
	cmp	r3, #0
	bne	.L102
	.loc 1 729 9
	movs	r3, #0
	str	r3, [sp]
	movs	r3, #0
	movs	r2, #70
	movs	r1, #9
	movs	r0, #2
	bl	openserial_printLog
	.loc 1 731 9
	b	.L99
.L102:
	.loc 1 735 18
	ldr	r3, .L119
	ldr	r3, [r3, #360]
	.loc 1 735 41
	movs	r2, #9
	strb	r2, [r3]
	.loc 1 736 18
	ldr	r3, .L119
	ldr	r3, [r3, #360]
	.loc 1 736 39
	movs	r2, #9
	strb	r2, [r3, #1]
	.loc 1 749 62
	ldr	r3, .L119
	ldr	r2, [r3, #360]
	.loc 1 749 22
	ldr	r3, .L119
	ldr	r3, [r3, #360]
	.loc 1 749 47
	adds	r2, r2, #197
	.loc 1 749 45
	str	r2, [r3, #4]
	.loc 1 750 45
	ldr	r3, .L119
	ldr	r3, [r3, #360]
	.loc 1 750 9
	ldr	r0, [r3, #4]
	.loc 1 751 60
	ldr	r3, .L119
	ldr	r3, [r3, #360]
	.loc 1 751 45
	add	r1, r3, #8
	.loc 1 753 46
	ldr	r3, .L119
	ldr	r3, [r3, #360]
	.loc 1 750 9
	add	r4, r3, #193
	.loc 1 754 46
	ldr	r3, .L119
	ldr	r3, [r3, #360]
	.loc 1 750 9
	adds	r3, r3, #194
	.loc 1 755 46
	ldr	r2, .L119
	ldr	r2, [r2, #360]
	.loc 1 750 9
	adds	r2, r2, #195
	str	r2, [sp, #4]
	str	r3, [sp]
	mov	r3, r4
	movs	r2, #130
	bl	radio_getReceivedFrame
	.loc 1 758 26
	ldr	r3, .L119
	ldr	r3, [r3, #360]
	.loc 1 758 39
	ldrsh	r3, [r3, #8]
	.loc 1 758 12
	cmp	r3, #1
	ble	.L103
	.loc 1 759 26 discriminator 1
	ldr	r3, .L119
	ldr	r3, [r3, #360]
	.loc 1 759 39 discriminator 1
	ldrsh	r3, [r3, #8]
	.loc 1 758 61 discriminator 1
	cmp	r3, #128
	ble	.L104
.L103:
	.loc 1 762 13
	ldr	r3, .L119
	ldr	r3, [r3, #360]
	ldrsh	r3, [r3, #8]
	uxth	r3, r3
	str	r3, [sp]
	movs	r3, #0
	movs	r2, #64
	movs	r1, #9
	movs	r0, #2
	bl	openserial_printLog
	.loc 1 765 13
	b	.L105
.L104:
	.loc 1 769 9
	movs	r1, #2
	ldr	r0, .L119+4
	bl	packetfunctions_tossFooter
	.loc 1 772 26
	ldr	r3, .L119
	ldr	r3, [r3, #360]
	.loc 1 772 39
	ldrb	r3, [r3, #195]	@ zero_extendqisi2
	.loc 1 772 12
	cmp	r3, #0
	beq	.L114
	.loc 1 778 9
	ldr	r3, .L119
	ldr	r3, [r3, #360]
	add	r2, sp, #24
	mov	r1, r2
	mov	r0, r3
	bl	ieee802154_retrieveHeader
	.loc 1 781 30
	ldrb	r3, [sp, #24]	@ zero_extendqisi2
	.loc 1 781 12
	cmp	r3, #0
	beq	.L115
	.loc 1 787 22
	ldr	r3, .L119
	ldr	r3, [r3, #360]
	.loc 1 787 69
	ldrb	r2, [sp, #26]	@ zero_extendqisi2
	.loc 1 787 50
	strb	r2, [r3, #78]
	.loc 1 788 22
	ldr	r3, .L119
	ldr	r3, [r3, #360]
	.loc 1 788 63
	ldrb	r2, [sp, #33]	@ zero_extendqisi2
	.loc 1 788 44
	strb	r2, [r3, #79]
	.loc 1 789 31
	ldr	r3, .L119
	ldr	r3, [r3, #360]
	.loc 1 789 16
	adds	r3, r3, #61
	.loc 1 789 9
	mov	r2, r3
	add	r3, sp, #69
	ldr	r5, [r3]	@ unaligned
	ldr	r4, [r3, #4]	@ unaligned
	ldr	r0, [r3, #8]	@ unaligned
	ldr	r1, [r3, #12]	@ unaligned
	str	r5, [r2]	@ unaligned
	str	r4, [r2, #4]	@ unaligned
	str	r0, [r2, #8]	@ unaligned
	str	r1, [r2, #12]	@ unaligned
	ldrb	r3, [r3, #16]
	strb	r3, [r2, #16]
	.loc 1 792 13
	ldr	r3, .L119
	ldr	r3, [r3, #360]
	add	r2, sp, #24
	mov	r1, r2
	mov	r0, r3
	bl	IEEE802154_security_acceptableLevel
	mov	r3, r0
	.loc 1 792 12
	cmp	r3, #0
	beq	.L116
	.loc 1 796 26
	ldr	r3, .L119
	ldr	r3, [r3, #360]
	.loc 1 796 39
	ldrb	r3, [r3, #165]	@ zero_extendqisi2
	.loc 1 796 12
	cmp	r3, #0
	beq	.L109
	.loc 1 799 31
	ldr	r3, .L119
	ldrb	r3, [r3, #16]	@ zero_extendqisi2
	.loc 1 799 16
	cmp	r3, #0
	bne	.L105
	.loc 1 799 59 discriminator 1
	ldrb	r3, [sp, #26]	@ zero_extendqisi2
	.loc 1 799 39 discriminator 1
	cmp	r3, #0
	bne	.L105
	.loc 1 800 22
	ldr	r3, .L119
	ldr	r3, [r3, #360]
	add	r2, sp, #24
	mov	r1, r2
	mov	r0, r3
	bl	isValidJoin
	mov	r3, r0
	.loc 1 800 20
	cmp	r3, #0
	beq	.L117
.L109:
	.loc 1 810 82
	ldrb	r3, [sp, #25]	@ zero_extendqisi2
	.loc 1 810 9
	uxth	r3, r3
	mov	r1, r3
	ldr	r0, .L119+4
	bl	packetfunctions_tossHeader
	.loc 1 813 15
	movs	r3, #0
	strh	r3, [sp, #22]	@ movhi
	.loc 1 816 42
	ldrb	r3, [sp, #24]	@ zero_extendqisi2
	.loc 1 819 110
	cmp	r3, #1
	bne	.L110
	.loc 1 817 42
	ldrb	r3, [sp, #31]	@ zero_extendqisi2
	.loc 1 816 57
	cmp	r3, #1
	bne	.L110
	.loc 1 818 42
	ldrb	r3, [sp, #26]	@ zero_extendqisi2
	.loc 1 817 65
	cmp	r3, #0
	bne	.L110
	.loc 1 819 25
	movs	r0, #4
	bl	idmanager_getMyID
	mov	r2, r0
	add	r3, sp, #24
	adds	r3, r3, #11
	mov	r1, r2
	mov	r0, r3
	bl	packetfunctions_sameAddress
	mov	r3, r0
	.loc 1 818 76
	cmp	r3, #0
	beq	.L110
	.loc 1 820 25 discriminator 3
	ldr	r3, .L119
	ldr	r3, [r3, #360]
	add	r2, sp, #22
	mov	r1, r2
	mov	r0, r3
	bl	ieee154e_processIEs
	mov	r3, r0
	.loc 1 819 110 discriminator 3
	cmp	r3, #0
	beq	.L110
	.loc 1 819 110 is_stmt 0 discriminator 2
	movs	r3, #1
	b	.L111
.L110:
	.loc 1 819 110 discriminator 1
	movs	r3, #0
.L111:
	.loc 1 814 12 is_stmt 1
	cmp	r3, #0
	beq	.L118
	.loc 1 827 9
	bl	radio_rfOff
	.loc 1 830 39
	bl	sctimer_readCounter
	mov	r2, r0
	.loc 1 830 76
	ldr	r3, .L119
	ldr	r3, [r3, #404]
	.loc 1 830 61
	subs	r2, r2, r3
	.loc 1 830 35
	ldr	r3, .L119
	ldr	r3, [r3, #408]
	add	r3, r3, r2
	ldr	r2, .L119
	str	r3, [r2, #408]
	.loc 1 833 9
	ldrh	r3, [sp, #22]
	mov	r1, r3
	ldr	r0, .L119+4
	bl	packetfunctions_tossHeader
	.loc 1 836 9
	ldr	r3, .L119
	ldr	r3, [r3, #376]
	mov	r0, r3
	bl	synchronizePacket
	.loc 1 839 9
	movs	r0, #1
	bl	changeIsSync
	.loc 1 841 9
	ldr	r3, .L119
	ldrh	r3, [r3, #6]
	movs	r2, #0
	str	r2, [sp]
	movs	r2, #48
	movs	r1, #9
	movs	r0, #3
	bl	openserial_printLog
	.loc 1 846 9
	ldr	r3, .L119
	ldr	r3, [r3, #360]
	mov	r0, r3
	bl	notif_receive
	.loc 1 849 36
	ldr	r3, .L119
	movs	r2, #0
	str	r2, [r3, #360]
	.loc 1 852 9
	bl	endSlot
	.loc 1 855 9
	b	.L99
.L114:
	.loc 1 774 13
	nop
	b	.L105
.L115:
	.loc 1 783 13
	nop
	b	.L105
.L116:
	.loc 1 793 13
	nop
	b	.L105
.L117:
	.loc 1 801 21
	nop
	b	.L105
.L118:
	.loc 1 823 13
	nop
.L105:
	.loc 1 860 5 discriminator 1
	ldr	r3, .L119
	ldr	r3, [r3, #360]
	mov	r0, r3
	bl	openqueue_freePacketBuffer
	.loc 1 863 32 discriminator 1
	ldr	r3, .L119
	movs	r2, #0
	str	r2, [r3, #360]
	.loc 1 866 5 discriminator 1
	movs	r0, #1
	bl	changeState
.L99:
	.loc 1 867 1
	add	sp, sp, #92
.LCFI35:
	@ sp needed
	pop	{r4, r5, pc}
.L120:
	.align	2
.L119:
	.word	ieee154e_vars
	.word	ieee154e_vars+360
.LFE127:
	.size	activity_synchronize_endOfFrame, .-activity_synchronize_endOfFrame
	.section	.text.ieee154e_processIEs,"ax",%progbits
	.align	1
	.global	ieee154e_processIEs
	.syntax unified
	.thumb
	.thumb_func
	.type	ieee154e_processIEs, %function
ieee154e_processIEs:
.LFB128:
	.loc 1 869 78
	@ args = 0, pretend = 0, frame = 16
	@ frame_needed = 0, uses_anonymous_args = 0
	push	{lr}
.LCFI36:
	sub	sp, sp, #28
.LCFI37:
	str	r0, [sp, #12]
	str	r1, [sp, #8]
	.loc 1 871 9
	ldr	r1, [sp, #8]
	ldr	r0, [sp, #12]
	bl	isValidEbFormat
	mov	r3, r0
	.loc 1 871 8
	cmp	r3, #1
	bne	.L122
	.loc 1 873 9
	bl	ieee154e_syncSlotOffset
	.loc 1 874 9
	ldr	r3, .L129
	ldrh	r3, [r3, #6]
	mov	r0, r3
	bl	schedule_syncSlotOffset
	.loc 1 875 46
	bl	schedule_getNextActiveSlotOffset
	mov	r3, r0
	mov	r2, r3
	.loc 1 875 44
	ldr	r3, .L129
	strh	r2, [r3, #8]	@ movhi
	.loc 1 878 16
	movs	r3, #0
	strb	r3, [sp, #23]
	.loc 1 878 9
	b	.L123
.L126:
	.loc 1 879 31
	ldr	r3, .L129
	ldrb	r3, [r3, #380]	@ zero_extendqisi2
	.loc 1 879 37
	subs	r3, r3, #11
	.loc 1 879 70
	ldrb	r2, [sp, #23]	@ zero_extendqisi2
	ldr	r1, .L129
	add	r2, r2, r1
	ldrb	r2, [r2, #384]	@ zero_extendqisi2
	.loc 1 879 16
	cmp	r3, r2
	beq	.L128
	.loc 1 878 40 discriminator 2
	ldrb	r3, [sp, #23]	@ zero_extendqisi2
	adds	r3, r3, #1
	strb	r3, [sp, #23]
.L123:
	.loc 1 878 23 discriminator 1
	ldrb	r3, [sp, #23]	@ zero_extendqisi2
	cmp	r3, #15
	bls	.L126
	b	.L125
.L128:
	.loc 1 880 17
	nop
.L125:
	.loc 1 883 39
	bl	schedule_getChannelOffset
	mov	r3, r0
	mov	r2, r3
	.loc 1 883 37
	ldrb	r3, [sp, #23]
	subs	r3, r3, r2
	uxtb	r2, r3
	.loc 1 883 33
	ldr	r3, .L129
	strb	r2, [r3, #381]
	.loc 1 884 16
	movs	r3, #1
	b	.L127
.L122:
	.loc 1 887 9
	movs	r3, #0
	str	r3, [sp]
	movs	r3, #3
	movs	r2, #41
	movs	r1, #9
	movs	r0, #2
	bl	openserial_printLog
	.loc 1 888 16
	movs	r3, #0
.L127:
	.loc 1 890 1
	mov	r0, r3
	add	sp, sp, #28
.LCFI38:
	@ sp needed
	ldr	pc, [sp], #4
.L130:
	.align	2
.L129:
	.word	ieee154e_vars
.LFE128:
	.size	ieee154e_processIEs, .-ieee154e_processIEs
	.section	.text.activity_ti1ORri1,"ax",%progbits
	.align	1
	.global	activity_ti1ORri1
	.syntax unified
	.thumb
	.thumb_func
	.type	activity_ti1ORri1, %function
activity_ti1ORri1:
.LFB129:
	.loc 1 894 42
	@ args = 0, pretend = 0, frame = 32
	@ frame_needed = 0, uses_anonymous_args = 0
	push	{lr}
.LCFI39:
	sub	sp, sp, #44
.LCFI40:
	.loc 1 900 10
	movs	r3, #0
	strb	r3, [sp, #38]
	.loc 1 903 5
	bl	incrementAsnOffset
	.loc 1 906 5
	bl	debugpins_slot_toggle
	.loc 1 907 22
	ldr	r3, .L154
	ldrh	r3, [r3, #6]
	.loc 1 907 8
	cmp	r3, #0
	bne	.L132
	.loc 1 908 9
	bl	debugpins_frame_toggle
.L132:
	.loc 1 912 9
	bl	idmanager_getIsDAGroot
	mov	r3, r0
	.loc 1 912 8
	cmp	r3, #0
	bne	.L133
	.loc 1 913 26
	ldr	r3, .L154
	ldr	r2, [r3, #12]
	.loc 1 913 56
	ldr	r3, .L154
	ldr	r3, [r3, #348]
	.loc 1 913 12
	cmp	r2, r3
	bls	.L134
	.loc 1 914 41
	ldr	r3, .L154
	ldr	r2, [r3, #12]
	.loc 1 914 57
	ldr	r3, .L154
	ldr	r3, [r3, #348]
	.loc 1 914 41
	subs	r3, r2, r3
	ldr	r2, .L154
	str	r3, [r2, #12]
	b	.L133
.L134:
	.loc 1 917 43
	ldr	r3, .L154
	movs	r2, #1
	str	r2, [r3, #348]
	.loc 1 920 13
	movs	r0, #0
	bl	changeIsSync
	.loc 1 923 13
	ldr	r3, .L154
	ldrh	r3, [r3, #6]
	movs	r2, #0
	str	r2, [sp]
	movs	r2, #47
	movs	r1, #9
	movs	r0, #2
	bl	openserial_printLog
	.loc 1 928 27
	ldr	r3, .L154+4
	ldrb	r3, [r3, #6]	@ zero_extendqisi2
	.loc 1 928 37
	adds	r3, r3, #1
	uxtb	r2, r3
	ldr	r3, .L154+4
	strb	r2, [r3, #6]
	.loc 1 931 13
	bl	endSlot
	.loc 1 932 13
	b	.L131
.L133:
	.loc 1 937 22
	ldr	r3, .L154
	ldrb	r3, [r3, #352]	@ zero_extendqisi2
	.loc 1 937 8
	cmp	r3, #0
	beq	.L136
	.loc 1 939 9
	ldr	r3, .L154
	ldrb	r3, [r3, #352]	@ zero_extendqisi2
	uxth	r2, r3
	ldr	r3, .L154
	ldrh	r3, [r3, #6]
	str	r3, [sp]
	mov	r3, r2
	movs	r2, #51
	movs	r1, #9
	movs	r0, #2
	bl	openserial_printLog
	.loc 1 943 9
	bl	endSlot
	.loc 1 944 9
	b	.L131
.L136:
	.loc 1 948 35
	ldr	r3, .L154
	movs	r2, #1
	str	r2, [r3, #348]
	.loc 1 951 42
	bl	schedule_getNextActiveSlotOffset
	mov	r3, r0
	mov	r2, r3
	.loc 1 951 40
	ldr	r3, .L154
	strh	r2, [r3, #8]	@ movhi
	.loc 1 952 22
	ldr	r3, .L154
	ldrh	r2, [r3, #6]
	.loc 1 952 50
	ldr	r3, .L154
	ldrh	r3, [r3, #8]
	.loc 1 952 8
	cmp	r2, r3
	bne	.L137
	.loc 1 956 9
	bl	schedule_advanceSlot
	.loc 1 959 30
	bl	schedule_getChannelOffset
	mov	r3, r0
	mov	r0, r3
	bl	calculateFrequency
	mov	r3, r0
	mov	r2, r3
	.loc 1 959 28
	ldr	r3, .L154
	strb	r2, [r3, #380]
	.loc 1 962 46
	bl	schedule_getNextActiveSlotOffset
	mov	r3, r0
	mov	r2, r3
	.loc 1 962 44
	ldr	r3, .L154
	strh	r2, [r3, #8]	@ movhi
	.loc 1 963 13
	bl	idmanager_getIsSlotSkip
	mov	r3, r0
	.loc 1 963 12
	cmp	r3, #0
	beq	.L138
	.loc 1 963 42 discriminator 1
	bl	idmanager_getIsDAGroot
	mov	r3, r0
	.loc 1 963 39 discriminator 1
	cmp	r3, #0
	bne	.L138
	.loc 1 964 30
	ldr	r3, .L154
	ldrh	r2, [r3, #8]
	.loc 1 964 67
	ldr	r3, .L154
	ldrh	r3, [r3, #6]
	.loc 1 964 16
	cmp	r2, r3
	bls	.L139
	.loc 1 965 62
	ldr	r3, .L154
	ldrh	r3, [r3, #8]
	mov	r2, r3
	.loc 1 965 99
	ldr	r3, .L154
	ldrh	r3, [r3, #6]
	.loc 1 965 84
	subs	r3, r2, r3
	mov	r2, r3
	.loc 1 965 47
	ldr	r3, .L154
	str	r2, [r3, #348]
	b	.L140
.L139:
	.loc 1 968 25
	bl	schedule_getFrameLength
	mov	r3, r0
	mov	r2, r3
	.loc 1 968 66
	ldr	r3, .L154
	ldrh	r3, [r3, #8]
	.loc 1 968 51
	add	r3, r3, r2
	.loc 1 968 103
	ldr	r2, .L154
	ldrh	r2, [r2, #6]
	.loc 1 968 88
	subs	r3, r3, r2
	mov	r2, r3
	.loc 1 967 47
	ldr	r3, .L154
	str	r2, [r3, #348]
.L140:
	.loc 1 971 13
	ldr	r3, .L154
	ldrb	r0, [r3, #420]	@ zero_extendqisi2
	.loc 1 973 52
	ldr	r3, .L154
	ldr	r3, [r3, #348]
	.loc 1 971 13
	mov	r2, #656
	mul	r1, r2, r3
	ldr	r3, .L154
	ldr	r2, [r3, #424]
	ldr	r3, .L154+8
	str	r3, [sp]
	movs	r3, #1
	bl	opentimers_scheduleAbsolute
	.loc 1 978 73
	ldr	r3, .L154
	ldr	r3, [r3, #348]
	.loc 1 978 40
	uxth	r3, r3
	mov	r2, r3	@ movhi
	lsls	r2, r2, #2
	add	r2, r2, r3
	lsls	r2, r2, #3
	add	r3, r3, r2
	lsls	r3, r3, #4
	uxth	r2, r3
	ldr	r3, .L154
	strh	r2, [r3, #418]	@ movhi
	.loc 1 981 20
	movs	r3, #0
	strb	r3, [sp, #39]
	.loc 1 981 13
	b	.L141
.L142:
	.loc 1 982 17 discriminator 3
	bl	incrementAsnOffset
	.loc 1 981 65 discriminator 3
	ldrb	r3, [sp, #39]	@ zero_extendqisi2
	adds	r3, r3, #1
	strb	r3, [sp, #39]
.L141:
	.loc 1 981 27 discriminator 1
	ldrb	r2, [sp, #39]	@ zero_extendqisi2
	.loc 1 981 42 discriminator 1
	ldr	r3, .L154
	ldr	r3, [r3, #348]
	.loc 1 981 59 discriminator 1
	subs	r3, r3, #1
	.loc 1 981 27 discriminator 1
	cmp	r2, r3
	bcc	.L142
	b	.L138
.L137:
	.loc 1 987 9
	bl	endSlot
	.loc 1 988 9
	b	.L131
.L138:
	.loc 1 992 16
	bl	schedule_getType
	mov	r3, r0
	strb	r3, [sp, #37]
	.loc 1 993 5
	ldrb	r3, [sp, #37]	@ zero_extendqisi2
	cmp	r3, #3
	beq	.L143
	cmp	r3, #3
	bgt	.L144
	cmp	r3, #1
	beq	.L143
	cmp	r3, #2
	beq	.L145
	b	.L144
.L143:
	.loc 1 997 38
	ldr	r3, .L154
	movs	r2, #0
	str	r2, [r3, #356]
	.loc 1 999 13
	add	r3, sp, #20
	mov	r0, r3
	bl	schedule_getNeighbor
	.loc 1 1002 17
	bl	schedule_getOkToSend
	mov	r3, r0
	.loc 1 1002 16
	cmp	r3, #0
	beq	.L146
	.loc 1 1003 21
	add	r3, sp, #20
	mov	r0, r3
	bl	packetfunctions_isBroadcastMulticast
	mov	r3, r0
	.loc 1 1003 20
	cmp	r3, #0
	bne	.L147
	.loc 1 1006 48
	add	r3, sp, #20
	mov	r0, r3
	bl	openqueue_macGetUnicastPacket
	mov	r3, r0
	.loc 1 1006 46
	ldr	r2, .L154
	str	r3, [r2, #356]
	.loc 1 1008 38
	ldr	r3, .L154
	ldr	r3, [r3, #356]
	.loc 1 1008 24
	cmp	r3, #0
	bne	.L148
	.loc 1 1009 52
	add	r3, sp, #20
	mov	r0, r3
	bl	openqueue_macGetKaPacket
	mov	r3, r0
	.loc 1 1009 50
	ldr	r2, .L154
	str	r3, [r2, #356]
.L148:
	.loc 1 1012 25
	bl	schedule_getShared
	mov	r3, r0
	.loc 1 1012 24
	cmp	r3, #0
	bne	.L146
	.loc 1 1014 42
	ldr	r3, .L154
	ldr	r3, [r3, #356]
	.loc 1 1014 28
	cmp	r3, #0
	beq	.L149
	.loc 1 1015 42
	ldr	r3, .L154
	ldr	r3, [r3, #356]
	.loc 1 1015 71
	movs	r2, #1
	strb	r2, [r3, #164]
	.loc 1 1016 29
	add	r3, sp, #20
	movs	r1, #1
	mov	r0, r3
	bl	msf_updateCellsUsed
.L149:
	.loc 1 1018 25
	add	r3, sp, #20
	movs	r1, #1
	mov	r0, r3
	bl	msf_updateCellsElapsed
	b	.L146
.L147:
	.loc 1 1022 48
	bl	openqueue_macGetDIOPacket
	mov	r3, r0
	.loc 1 1022 46
	ldr	r2, .L154
	str	r3, [r2, #356]
	.loc 1 1023 38
	ldr	r3, .L154
	ldr	r3, [r3, #356]
	.loc 1 1023 24
	cmp	r3, #0
	bne	.L146
	.loc 1 1024 37
	movs	r3, #1
	strb	r3, [sp, #38]
	.loc 1 1026 52
	bl	openqueue_macGetEBPacket
	mov	r3, r0
	.loc 1 1026 50
	ldr	r2, .L154
	str	r3, [r2, #356]
.L146:
	.loc 1 1031 30
	ldr	r3, .L154
	ldr	r3, [r3, #356]
	.loc 1 1031 16
	cmp	r3, #0
	bne	.L150
	.loc 1 1032 20
	ldrb	r3, [sp, #37]	@ zero_extendqisi2
	cmp	r3, #1
	bne	.L145
	.loc 1 1034 21
	bl	endSlot
	.loc 1 1035 21
	b	.L131
.L155:
	.align	2
.L154:
	.word	ieee154e_vars
	.word	ieee154e_stats
	.word	isr_ieee154e_newSlot
.L150:
	.loc 1 1039 17
	movs	r0, #4
	bl	changeState
	.loc 1 1041 30
	ldr	r3, .L156
	ldr	r3, [r3, #356]
	.loc 1 1041 49
	movs	r2, #9
	strb	r2, [r3, #1]
	.loc 1 1042 20
	ldrb	r3, [sp, #38]	@ zero_extendqisi2
	cmp	r3, #1
	bne	.L152
	.loc 1 1044 21
	add	r3, sp, #12
	mov	r0, r3
	bl	ieee154e_getAsn
	.loc 1 1045 38
	bl	icmpv6rpl_getMyDAGrank
	mov	r3, r0
	.loc 1 1045 85
	lsrs	r3, r3, #8
	uxth	r3, r3
	uxtb	r3, r3
	subs	r3, r3, #1
	uxtb	r3, r3
	.loc 1 1045 35
	strb	r3, [sp, #11]
	.loc 1 1046 41
	ldr	r3, .L156
	ldr	r3, [r3, #356]
	.loc 1 1046 52
	ldr	r3, [r3, #148]
	.loc 1 1046 21
	add	r1, sp, #12
	movs	r2, #5
	mov	r0, r3
	bl	memcpy
	.loc 1 1047 41
	ldr	r3, .L156
	ldr	r3, [r3, #356]
	.loc 1 1047 52
	ldr	r3, [r3, #148]
	.loc 1 1047 68
	adds	r3, r3, #5
	ldrb	r2, [sp, #11]	@ zero_extendqisi2
	.loc 1 1047 21
	strb	r2, [r3]
.L152:
	.loc 1 1050 30
	ldr	r3, .L156
	ldr	r3, [r3, #356]
	.loc 1 1050 41
	ldrb	r2, [r3, #81]	@ zero_extendqisi2
	.loc 1 1050 59
	adds	r2, r2, #1
	uxtb	r2, r2
	strb	r2, [r3, #81]
	.loc 1 1054 17
	ldr	r3, .L156
	ldrb	r0, [r3, #420]	@ zero_extendqisi2
	.loc 1 1056 25
	ldr	r3, .L156
	ldr	r3, [r3, #372]
	.loc 1 1054 17
	add	r1, r3, #152
	ldr	r3, .L156
	ldr	r2, [r3, #424]
	ldr	r3, .L156+4
	str	r3, [sp]
	movs	r3, #1
	bl	opentimers_scheduleAbsolute
	.loc 1 1062 17
	b	.L131
.L145:
	.loc 1 1066 13
	movs	r0, #15
	bl	changeState
	.loc 1 1071 13
	ldr	r3, .L156
	ldrb	r0, [r3, #420]	@ zero_extendqisi2
	.loc 1 1073 21
	ldr	r3, .L156
	ldr	r3, [r3, #372]
	.loc 1 1071 13
	add	r1, r3, #117
	ldr	r3, .L156
	ldr	r2, [r3, #424]
	ldr	r3, .L156+4
	str	r3, [sp]
	movs	r3, #1
	bl	opentimers_scheduleAbsolute
	.loc 1 1080 13
	b	.L131
.L144:
	.loc 1 1084 13
	ldrb	r3, [sp, #37]	@ zero_extendqisi2
	uxth	r2, r3
	ldr	r3, .L156
	ldrh	r3, [r3, #6]
	str	r3, [sp]
	mov	r3, r2
	movs	r2, #45
	movs	r1, #9
	movs	r0, #1
	bl	openserial_printLog
	.loc 1 1088 13
	bl	endSlot
	.loc 1 1089 13
	nop
.L131:
	.loc 1 1091 1
	add	sp, sp, #44
.LCFI41:
	@ sp needed
	ldr	pc, [sp], #4
.L157:
	.align	2
.L156:
	.word	ieee154e_vars
	.word	isr_ieee154e_timer
.LFE129:
	.size	activity_ti1ORri1, .-activity_ti1ORri1
	.section	.text.activity_ti2,"ax",%progbits
	.align	1
	.global	activity_ti2
	.syntax unified
	.thumb
	.thumb_func
	.type	activity_ti2, %function
activity_ti2:
.LFB130:
	.loc 1 1093 37
	@ args = 0, pretend = 0, frame = 8
	@ frame_needed = 0, uses_anonymous_args = 0
	push	{lr}
.LCFI42:
	sub	sp, sp, #20
.LCFI43:
	.loc 1 1096 5
	movs	r0, #5
	bl	changeState
	.loc 1 1101 5
	ldr	r3, .L163
	ldrb	r0, [r3, #420]	@ zero_extendqisi2
	.loc 1 1103 13
	ldr	r3, .L163
	ldr	r3, [r3, #372]
	.loc 1 1101 5
	add	r1, r3, #165
	ldr	r3, .L163
	ldr	r2, [r3, #424]
	ldr	r3, .L163+4
	str	r3, [sp]
	movs	r3, #1
	bl	opentimers_scheduleAbsolute
	.loc 1 1109 5
	ldr	r3, .L163
	ldr	r3, [r3, #356]
	mov	r1, r3
	ldr	r0, .L163+8
	bl	packetfunctions_duplicatePacket
	.loc 1 1112 47
	ldr	r3, .L163
	ldrb	r3, [r3, #185]	@ zero_extendqisi2
	.loc 1 1112 8
	cmp	r3, #0
	beq	.L159
	.loc 1 1114 13
	ldr	r0, .L163+8
	bl	IEEE802154_security_outgoingFrameSecurity
	mov	r3, r0
	.loc 1 1114 12
	cmp	r3, #0
	beq	.L159
	.loc 1 1116 13
	bl	endSlot
	.loc 1 1117 13
	b	.L158
.L159:
	.loc 1 1124 15
	ldr	r3, .L163+8
	str	r3, [sp, #12]
	.loc 1 1125 9
	add	r3, sp, #12
	movs	r1, #2
	mov	r0, r3
	bl	packetfunctions_reserveFooter
	mov	r3, r0
	.loc 1 1125 8
	cmp	r3, #1
	bne	.L161
	.loc 1 1128 22
	ldr	r3, .L163
	ldr	r3, [r3, #356]
	.loc 1 1128 50
	movs	r2, #1
	strb	r2, [r3, #80]
	.loc 1 1129 9
	bl	endSlot
	.loc 1 1130 9
	b	.L158
.L161:
	.loc 1 1134 5
	ldr	r3, .L163
	ldrb	r3, [r3, #380]	@ zero_extendqisi2
	movs	r1, #1
	mov	r0, r3
	bl	radio_setFrequency
	.loc 1 1137 5
	ldr	r3, .L163
	ldr	r3, [r3, #24]
	.loc 1 1137 108
	ldr	r2, .L163
	ldrsh	r2, [r2, #28]
	.loc 1 1137 5
	uxth	r2, r2
	mov	r1, r2
	mov	r0, r3
	bl	radio_loadPacket
	.loc 1 1140 5
	bl	radio_txEnable
	.loc 1 1142 33
	bl	sctimer_readCounter
	mov	r3, r0
	.loc 1 1142 31
	ldr	r2, .L163
	str	r3, [r2, #404]
	.loc 1 1143 35
	ldr	r3, .L163
	movs	r2, #1
	strb	r2, [r3, #412]
	.loc 1 1145 5
	movs	r0, #6
	bl	changeState
.L158:
	.loc 1 1146 1
	add	sp, sp, #20
.LCFI44:
	@ sp needed
	ldr	pc, [sp], #4
.L164:
	.align	2
.L163:
	.word	ieee154e_vars
	.word	isr_ieee154e_timer
	.word	ieee154e_vars+20
.LFE130:
	.size	activity_ti2, .-activity_ti2
	.section	.text.activity_tie1,"ax",%progbits
	.align	1
	.global	activity_tie1
	.syntax unified
	.thumb
	.thumb_func
	.type	activity_tie1, %function
activity_tie1:
.LFB131:
	.loc 1 1148 38
	@ args = 0, pretend = 0, frame = 0
	@ frame_needed = 0, uses_anonymous_args = 0
	push	{lr}
.LCFI45:
	sub	sp, sp, #12
.LCFI46:
	.loc 1 1150 5
	ldr	r3, .L166
	ldrb	r3, [r3, #352]	@ zero_extendqisi2
	uxth	r2, r3
	ldr	r3, .L166
	ldrh	r3, [r3, #6]
	str	r3, [sp]
	mov	r3, r2
	movs	r2, #55
	movs	r1, #9
	movs	r0, #2
	bl	openserial_printLog
	.loc 1 1154 5
	bl	endSlot
	.loc 1 1155 1
	nop
	add	sp, sp, #12
.LCFI47:
	@ sp needed
	ldr	pc, [sp], #4
.L167:
	.align	2
.L166:
	.word	ieee154e_vars
.LFE131:
	.size	activity_tie1, .-activity_tie1
	.section	.text.activity_ti3,"ax",%progbits
	.align	1
	.global	activity_ti3
	.syntax unified
	.thumb
	.thumb_func
	.type	activity_ti3, %function
activity_ti3:
.LFB132:
	.loc 1 1157 37
	@ args = 0, pretend = 0, frame = 0
	@ frame_needed = 0, uses_anonymous_args = 0
	push	{lr}
.LCFI48:
	sub	sp, sp, #12
.LCFI49:
	.loc 1 1159 5
	movs	r0, #7
	bl	changeState
	.loc 1 1163 5
	ldr	r3, .L169
	ldrb	r0, [r3, #420]	@ zero_extendqisi2
	.loc 1 1165 13
	ldr	r3, .L169
	ldr	r3, [r3, #372]
	.loc 1 1163 5
	add	r1, r3, #209
	ldr	r3, .L169
	ldr	r2, [r3, #424]
	ldr	r3, .L169+4
	str	r3, [sp]
	movs	r3, #1
	bl	opentimers_scheduleAbsolute
	.loc 1 1172 5
	bl	radio_txNow
	.loc 1 1174 1
	nop
	add	sp, sp, #12
.LCFI50:
	@ sp needed
	ldr	pc, [sp], #4
.L170:
	.align	2
.L169:
	.word	ieee154e_vars
	.word	isr_ieee154e_timer
.LFE132:
	.size	activity_ti3, .-activity_ti3
	.section	.text.activity_tie2,"ax",%progbits
	.align	1
	.global	activity_tie2
	.syntax unified
	.thumb
	.thumb_func
	.type	activity_tie2, %function
activity_tie2:
.LFB133:
	.loc 1 1176 38
	@ args = 0, pretend = 0, frame = 0
	@ frame_needed = 0, uses_anonymous_args = 0
	push	{lr}
.LCFI51:
	sub	sp, sp, #12
.LCFI52:
	.loc 1 1178 5
	ldr	r3, .L172
	ldrb	r3, [r3, #352]	@ zero_extendqisi2
	uxth	r2, r3
	ldr	r3, .L172
	ldrh	r3, [r3, #6]
	str	r3, [sp]
	mov	r3, r2
	movs	r2, #60
	movs	r1, #9
	movs	r0, #2
	bl	openserial_printLog
	.loc 1 1183 5
	bl	endSlot
	.loc 1 1184 1
	nop
	add	sp, sp, #12
.LCFI53:
	@ sp needed
	ldr	pc, [sp], #4
.L173:
	.align	2
.L172:
	.word	ieee154e_vars
.LFE133:
	.size	activity_tie2, .-activity_tie2
	.section	.text.activity_ti4,"ax",%progbits
	.align	1
	.global	activity_ti4
	.syntax unified
	.thumb
	.thumb_func
	.type	activity_ti4, %function
activity_ti4:
.LFB134:
	.loc 1 1187 62
	@ args = 0, pretend = 0, frame = 8
	@ frame_needed = 0, uses_anonymous_args = 0
	push	{lr}
.LCFI54:
	sub	sp, sp, #20
.LCFI55:
	str	r0, [sp, #12]
	.loc 1 1189 5
	movs	r0, #8
	bl	changeState
	.loc 1 1193 5
	ldr	r3, .L175
	ldrb	r0, [r3, #420]	@ zero_extendqisi2
	.loc 1 1195 26
	ldr	r3, .L175
	ldrh	r3, [r3, #418]
	.loc 1 1193 5
	mov	r1, r3
	ldr	r3, .L175
	ldr	r2, [r3, #424]
	ldr	r3, .L175+4
	str	r3, [sp]
	movs	r3, #1
	bl	opentimers_scheduleAbsolute
	.loc 1 1202 36
	ldr	r2, .L175
	ldr	r3, [sp, #12]
	str	r3, [r2, #372]
	.loc 1 1206 5
	ldr	r3, .L175
	ldrb	r0, [r3, #420]	@ zero_extendqisi2
	.loc 1 1208 13
	ldr	r3, .L175
	ldr	r3, [r3, #372]
	.loc 1 1206 5
	add	r1, r3, #166
	ldr	r3, .L175
	ldr	r2, [r3, #424]
	ldr	r3, .L175+8
	str	r3, [sp]
	movs	r3, #1
	bl	opentimers_scheduleAbsolute
	.loc 1 1214 1
	nop
	add	sp, sp, #20
.LCFI56:
	@ sp needed
	ldr	pc, [sp], #4
.L176:
	.align	2
.L175:
	.word	ieee154e_vars
	.word	isr_ieee154e_newSlot
	.word	isr_ieee154e_timer
.LFE134:
	.size	activity_ti4, .-activity_ti4
	.section	.text.activity_tie3,"ax",%progbits
	.align	1
	.global	activity_tie3
	.syntax unified
	.thumb
	.thumb_func
	.type	activity_tie3, %function
activity_tie3:
.LFB135:
	.loc 1 1216 38
	@ args = 0, pretend = 0, frame = 0
	@ frame_needed = 0, uses_anonymous_args = 0
	push	{lr}
.LCFI57:
	sub	sp, sp, #12
.LCFI58:
	.loc 1 1218 5
	ldr	r3, .L178
	ldrb	r3, [r3, #352]	@ zero_extendqisi2
	uxth	r2, r3
	ldr	r3, .L178
	ldrh	r3, [r3, #6]
	str	r3, [sp]
	mov	r3, r2
	movs	r2, #59
	movs	r1, #9
	movs	r0, #2
	bl	openserial_printLog
	.loc 1 1223 5
	bl	endSlot
	.loc 1 1224 1
	nop
	add	sp, sp, #12
.LCFI59:
	@ sp needed
	ldr	pc, [sp], #4
.L179:
	.align	2
.L178:
	.word	ieee154e_vars
.LFE135:
	.size	activity_tie3, .-activity_tie3
	.section	.text.activity_ti5,"ax",%progbits
	.align	1
	.global	activity_ti5
	.syntax unified
	.thumb
	.thumb_func
	.type	activity_ti5, %function
activity_ti5:
.LFB136:
	.loc 1 1226 62
	@ args = 0, pretend = 0, frame = 16
	@ frame_needed = 0, uses_anonymous_args = 0
	push	{lr}
.LCFI60:
	sub	sp, sp, #28
.LCFI61:
	str	r0, [sp, #12]
	.loc 1 1230 5
	movs	r0, #9
	bl	changeState
	.loc 1 1234 5
	ldr	r3, .L186
	ldrb	r0, [r3, #420]	@ zero_extendqisi2
	.loc 1 1236 26
	ldr	r3, .L186
	ldrh	r3, [r3, #418]
	.loc 1 1234 5
	mov	r1, r3
	ldr	r3, .L186
	ldr	r2, [r3, #424]
	ldr	r3, .L186+4
	str	r3, [sp]
	movs	r3, #1
	bl	opentimers_scheduleAbsolute
	.loc 1 1243 5
	bl	radio_rfOff
	.loc 1 1244 35
	bl	sctimer_readCounter
	mov	r2, r0
	.loc 1 1244 72
	ldr	r3, .L186
	ldr	r3, [r3, #404]
	.loc 1 1244 57
	subs	r2, r2, r3
	.loc 1 1244 31
	ldr	r3, .L186
	ldr	r3, [r3, #408]
	add	r3, r3, r2
	ldr	r2, .L186
	str	r3, [r2, #408]
	.loc 1 1247 36
	ldr	r2, .L186
	ldr	r3, [sp, #12]
	str	r3, [r2, #372]
	.loc 1 1250 60
	ldr	r3, .L186
	ldr	r3, [r3, #356]
	.loc 1 1250 9
	adds	r3, r3, #61
	mov	r0, r3
	bl	packetfunctions_isBroadcastMulticast
	mov	r3, r0
	.loc 1 1250 8
	cmp	r3, #1
	bne	.L181
	.loc 1 1251 22
	movs	r3, #0
	strb	r3, [sp, #23]
	b	.L182
.L181:
	.loc 1 1253 22
	movs	r3, #1
	strb	r3, [sp, #23]
.L182:
	.loc 1 1256 8
	ldrb	r3, [sp, #23]	@ zero_extendqisi2
	cmp	r3, #1
	bne	.L183
	.loc 1 1260 9
	ldr	r3, .L186
	ldrb	r0, [r3, #420]	@ zero_extendqisi2
	.loc 1 1262 17
	ldr	r3, .L186
	ldr	r3, [r3, #372]
	.loc 1 1260 9
	add	r1, r3, #148
	ldr	r3, .L186
	ldr	r2, [r3, #424]
	ldr	r3, .L186+8
	str	r3, [sp]
	movs	r3, #1
	bl	opentimers_scheduleAbsolute
	.loc 1 1279 1
	b	.L185
.L183:
.LBB18:
	.loc 1 1270 9
	movs	r1, #1
	ldr	r0, .L186
	bl	schedule_indicateTx
	.loc 1 1272 9
	ldr	r3, .L186
	ldr	r3, [r3, #356]
	movs	r1, #0
	mov	r0, r3
	bl	notif_sendDone
	.loc 1 1274 34
	ldr	r3, .L186
	movs	r2, #0
	str	r2, [r3, #356]
	.loc 1 1277 9
	bl	endSlot
.L185:
.LBE18:
	.loc 1 1279 1
	nop
	add	sp, sp, #28
.LCFI62:
	@ sp needed
	ldr	pc, [sp], #4
.L187:
	.align	2
.L186:
	.word	ieee154e_vars
	.word	isr_ieee154e_newSlot
	.word	isr_ieee154e_timer
.LFE136:
	.size	activity_ti5, .-activity_ti5
	.section	.text.activity_ti6,"ax",%progbits
	.align	1
	.global	activity_ti6
	.syntax unified
	.thumb
	.thumb_func
	.type	activity_ti6, %function
activity_ti6:
.LFB137:
	.loc 1 1281 37
	@ args = 0, pretend = 0, frame = 0
	@ frame_needed = 0, uses_anonymous_args = 0
	push	{lr}
.LCFI63:
	sub	sp, sp, #12
.LCFI64:
	.loc 1 1283 5
	movs	r0, #10
	bl	changeState
	.loc 1 1287 5
	ldr	r3, .L189
	ldrb	r0, [r3, #420]	@ zero_extendqisi2
	.loc 1 1289 13
	ldr	r3, .L189
	ldr	r3, [r3, #372]
	.loc 1 1287 5
	add	r1, r3, #161
	ldr	r3, .L189
	ldr	r2, [r3, #424]
	ldr	r3, .L189+4
	str	r3, [sp]
	movs	r3, #1
	bl	opentimers_scheduleAbsolute
	.loc 1 1296 5
	ldr	r3, .L189
	ldrb	r3, [r3, #380]	@ zero_extendqisi2
	movs	r1, #2
	mov	r0, r3
	bl	radio_setFrequency
	.loc 1 1298 5
	bl	radio_rxEnable
	.loc 1 1301 33
	bl	sctimer_readCounter
	mov	r3, r0
	.loc 1 1301 31
	ldr	r2, .L189
	str	r3, [r2, #404]
	.loc 1 1302 35
	ldr	r3, .L189
	movs	r2, #1
	strb	r2, [r3, #412]
	.loc 1 1305 5
	movs	r0, #11
	bl	changeState
	.loc 1 1306 1
	nop
	add	sp, sp, #12
.LCFI65:
	@ sp needed
	ldr	pc, [sp], #4
.L190:
	.align	2
.L189:
	.word	ieee154e_vars
	.word	isr_ieee154e_timer
.LFE137:
	.size	activity_ti6, .-activity_ti6
	.section	.text.activity_tie4,"ax",%progbits
	.align	1
	.global	activity_tie4
	.syntax unified
	.thumb
	.thumb_func
	.type	activity_tie4, %function
activity_tie4:
.LFB138:
	.loc 1 1308 38
	@ args = 0, pretend = 0, frame = 0
	@ frame_needed = 0, uses_anonymous_args = 0
	push	{lr}
.LCFI66:
	sub	sp, sp, #12
.LCFI67:
	.loc 1 1310 5
	ldr	r3, .L192
	ldrb	r3, [r3, #352]	@ zero_extendqisi2
	uxth	r2, r3
	ldr	r3, .L192
	ldrh	r3, [r3, #6]
	str	r3, [sp]
	mov	r3, r2
	movs	r2, #56
	movs	r1, #9
	movs	r0, #2
	bl	openserial_printLog
	.loc 1 1314 5
	bl	endSlot
	.loc 1 1315 1
	nop
	add	sp, sp, #12
.LCFI68:
	@ sp needed
	ldr	pc, [sp], #4
.L193:
	.align	2
.L192:
	.word	ieee154e_vars
.LFE138:
	.size	activity_tie4, .-activity_tie4
	.section	.text.activity_ti7,"ax",%progbits
	.align	1
	.global	activity_ti7
	.syntax unified
	.thumb
	.thumb_func
	.type	activity_ti7, %function
activity_ti7:
.LFB139:
	.loc 1 1317 37
	@ args = 0, pretend = 0, frame = 0
	@ frame_needed = 0, uses_anonymous_args = 0
	push	{lr}
.LCFI69:
	sub	sp, sp, #12
.LCFI70:
	.loc 1 1319 5
	movs	r0, #12
	bl	changeState
	.loc 1 1322 5
	bl	radio_rxNow
	.loc 1 1326 5
	ldr	r3, .L195
	ldrb	r0, [r3, #420]	@ zero_extendqisi2
	.loc 1 1328 13
	ldr	r3, .L195
	ldr	r3, [r3, #372]
	.loc 1 1326 5
	add	r1, r3, #207
	ldr	r3, .L195
	ldr	r2, [r3, #424]
	ldr	r3, .L195+4
	str	r3, [sp]
	movs	r3, #1
	bl	opentimers_scheduleAbsolute
	.loc 1 1334 1
	nop
	add	sp, sp, #12
.LCFI71:
	@ sp needed
	ldr	pc, [sp], #4
.L196:
	.align	2
.L195:
	.word	ieee154e_vars
	.word	isr_ieee154e_timer
.LFE139:
	.size	activity_ti7, .-activity_ti7
	.section	.text.activity_tie5,"ax",%progbits
	.align	1
	.global	activity_tie5
	.syntax unified
	.thumb
	.thumb_func
	.type	activity_tie5, %function
activity_tie5:
.LFB140:
	.loc 1 1336 38
	@ args = 0, pretend = 0, frame = 0
	@ frame_needed = 0, uses_anonymous_args = 0
	push	{r3, lr}
.LCFI72:
	.loc 1 1338 5
	movs	r1, #0
	ldr	r0, .L200
	bl	schedule_indicateTx
	.loc 1 1341 18
	ldr	r3, .L200
	ldr	r3, [r3, #356]
	.loc 1 1341 29
	ldrb	r2, [r3, #80]	@ zero_extendqisi2
	.loc 1 1341 45
	subs	r2, r2, #1
	uxtb	r2, r2
	strb	r2, [r3, #80]
	.loc 1 1343 22
	ldr	r3, .L200
	ldr	r3, [r3, #356]
	.loc 1 1343 33
	ldrb	r3, [r3, #80]	@ zero_extendqisi2
	.loc 1 1343 8
	cmp	r3, #0
	bne	.L198
.LBB19:
	.loc 1 1345 9
	ldr	r3, .L200
	ldr	r3, [r3, #356]
	movs	r1, #1
	mov	r0, r3
	bl	notif_sendDone
.LBE19:
	b	.L199
.L198:
	.loc 1 1348 22
	ldr	r3, .L200
	ldr	r3, [r3, #356]
	.loc 1 1348 41
	movs	r2, #10
	strb	r2, [r3, #1]
.L199:
	.loc 1 1352 30
	ldr	r3, .L200
	movs	r2, #0
	str	r2, [r3, #356]
	.loc 1 1355 5
	bl	endSlot
	.loc 1 1356 1
	nop
	pop	{r3, pc}
.L201:
	.align	2
.L200:
	.word	ieee154e_vars
.LFE140:
	.size	activity_tie5, .-activity_tie5
	.section	.text.activity_ti8,"ax",%progbits
	.align	1
	.global	activity_ti8
	.syntax unified
	.thumb
	.thumb_func
	.type	activity_ti8, %function
activity_ti8:
.LFB141:
	.loc 1 1358 62
	@ args = 0, pretend = 0, frame = 8
	@ frame_needed = 0, uses_anonymous_args = 0
	push	{lr}
.LCFI73:
	sub	sp, sp, #20
.LCFI74:
	str	r0, [sp, #12]
	.loc 1 1360 5
	movs	r0, #13
	bl	changeState
	.loc 1 1364 5
	ldr	r3, .L203
	ldrb	r0, [r3, #420]	@ zero_extendqisi2
	.loc 1 1366 26
	ldr	r3, .L203
	ldrh	r3, [r3, #418]
	.loc 1 1364 5
	mov	r1, r3
	ldr	r3, .L203
	ldr	r2, [r3, #424]
	ldr	r3, .L203+4
	str	r3, [sp]
	movs	r3, #1
	bl	opentimers_scheduleAbsolute
	.loc 1 1373 36
	ldr	r2, .L203
	ldr	r3, [sp, #12]
	str	r3, [r2, #372]
	.loc 1 1377 5
	ldr	r3, .L203
	ldrb	r0, [r3, #420]	@ zero_extendqisi2
	.loc 1 1379 13
	ldr	r3, .L203
	ldr	r3, [r3, #372]
	.loc 1 1377 5
	add	r1, r3, #100
	ldr	r3, .L203
	ldr	r2, [r3, #424]
	ldr	r3, .L203+8
	str	r3, [sp]
	movs	r3, #1
	bl	opentimers_scheduleAbsolute
	.loc 1 1385 1
	nop
	add	sp, sp, #20
.LCFI75:
	@ sp needed
	ldr	pc, [sp], #4
.L204:
	.align	2
.L203:
	.word	ieee154e_vars
	.word	isr_ieee154e_newSlot
	.word	isr_ieee154e_timer
.LFE141:
	.size	activity_ti8, .-activity_ti8
	.section	.text.activity_tie6,"ax",%progbits
	.align	1
	.global	activity_tie6
	.syntax unified
	.thumb
	.thumb_func
	.type	activity_tie6, %function
activity_tie6:
.LFB142:
	.loc 1 1387 38
	@ args = 0, pretend = 0, frame = 0
	@ frame_needed = 0, uses_anonymous_args = 0
	push	{lr}
.LCFI76:
	sub	sp, sp, #12
.LCFI77:
	.loc 1 1389 5
	ldr	r3, .L206
	ldrb	r3, [r3, #352]	@ zero_extendqisi2
	uxth	r2, r3
	ldr	r3, .L206
	ldrh	r3, [r3, #6]
	str	r3, [sp]
	mov	r3, r2
	movs	r2, #62
	movs	r1, #9
	movs	r0, #2
	bl	openserial_printLog
	.loc 1 1393 5
	bl	endSlot
	.loc 1 1394 1
	nop
	add	sp, sp, #12
.LCFI78:
	@ sp needed
	ldr	pc, [sp], #4
.L207:
	.align	2
.L206:
	.word	ieee154e_vars
.LFE142:
	.size	activity_tie6, .-activity_tie6
	.section	.text.activity_ti9,"ax",%progbits
	.align	1
	.global	activity_ti9
	.syntax unified
	.thumb
	.thumb_func
	.type	activity_ti9, %function
activity_ti9:
.LFB143:
	.loc 1 1396 62
	@ args = 0, pretend = 0, frame = 72
	@ frame_needed = 0, uses_anonymous_args = 0
	push	{r4, r5, lr}
.LCFI79:
	sub	sp, sp, #84
.LCFI80:
	str	r0, [sp, #12]
	.loc 1 1400 5
	movs	r0, #14
	bl	changeState
	.loc 1 1404 5
	ldr	r3, .L225
	ldrb	r0, [r3, #420]	@ zero_extendqisi2
	.loc 1 1406 26
	ldr	r3, .L225
	ldrh	r3, [r3, #418]
	.loc 1 1404 5
	mov	r1, r3
	ldr	r3, .L225
	ldr	r2, [r3, #424]
	ldr	r3, .L225+4
	str	r3, [sp]
	movs	r3, #1
	bl	opentimers_scheduleAbsolute
	.loc 1 1413 5
	bl	radio_rfOff
	.loc 1 1415 35
	bl	sctimer_readCounter
	mov	r2, r0
	.loc 1 1415 72
	ldr	r3, .L225
	ldr	r3, [r3, #404]
	.loc 1 1415 57
	subs	r2, r2, r3
	.loc 1 1415 31
	ldr	r3, .L225
	ldr	r3, [r3, #408]
	add	r3, r3, r2
	ldr	r2, .L225
	str	r3, [r2, #408]
	.loc 1 1418 36
	ldr	r2, .L225
	ldr	r3, [sp, #12]
	str	r3, [r2, #372]
	.loc 1 1421 33
	movs	r0, #9
	bl	openqueue_getFreePacketBuffer
	mov	r3, r0
	.loc 1 1421 31
	ldr	r2, .L225
	str	r3, [r2, #368]
	.loc 1 1422 22
	ldr	r3, .L225
	ldr	r3, [r3, #368]
	.loc 1 1422 8
	cmp	r3, #0
	bne	.L209
	.loc 1 1424 9
	movs	r3, #0
	str	r3, [sp]
	movs	r3, #0
	movs	r2, #70
	movs	r1, #9
	movs	r0, #2
	bl	openserial_printLog
	.loc 1 1426 9
	bl	endSlot
	b	.L208
.L209:
	.loc 1 1431 18
	ldr	r3, .L225
	ldr	r3, [r3, #368]
	.loc 1 1431 40
	movs	r2, #9
	strb	r2, [r3]
	.loc 1 1432 18
	ldr	r3, .L225
	ldr	r3, [r3, #368]
	.loc 1 1432 38
	movs	r2, #9
	strb	r2, [r3, #1]
.LBB20:
	.loc 1 1442 61
	ldr	r3, .L225
	ldr	r2, [r3, #368]
	.loc 1 1442 22
	ldr	r3, .L225
	ldr	r3, [r3, #368]
	.loc 1 1442 46
	adds	r2, r2, #197
	.loc 1 1442 44
	str	r2, [r3, #4]
	.loc 1 1444 30
	ldr	r3, .L225
	ldr	r3, [r3, #368]
	.loc 1 1443 9
	ldr	r0, [r3, #4]
	.loc 1 1445 45
	ldr	r3, .L225
	ldr	r3, [r3, #368]
	.loc 1 1445 30
	add	r1, r3, #8
	.loc 1 1447 31
	ldr	r3, .L225
	ldr	r3, [r3, #368]
	.loc 1 1443 9
	add	r4, r3, #193
	.loc 1 1448 31
	ldr	r3, .L225
	ldr	r3, [r3, #368]
	.loc 1 1443 9
	adds	r3, r3, #194
	.loc 1 1449 31
	ldr	r2, .L225
	ldr	r2, [r2, #368]
	.loc 1 1443 9
	adds	r2, r2, #195
	str	r2, [sp, #4]
	str	r3, [sp]
	mov	r3, r4
	movs	r2, #130
	bl	radio_getReceivedFrame
	.loc 1 1453 26
	ldr	r3, .L225
	ldr	r3, [r3, #368]
	.loc 1 1453 38
	ldrsh	r3, [r3, #8]
	.loc 1 1453 12
	cmp	r3, #1
	ble	.L211
	.loc 1 1453 76 discriminator 1
	ldr	r3, .L225
	ldr	r3, [r3, #368]
	.loc 1 1453 88 discriminator 1
	ldrsh	r3, [r3, #8]
	.loc 1 1453 60 discriminator 1
	cmp	r3, #128
	ble	.L212
.L211:
	.loc 1 1455 13
	ldr	r3, .L225
	ldr	r3, [r3, #368]
	ldrsh	r3, [r3, #8]
	uxth	r3, r3
	str	r3, [sp]
	movs	r3, #1
	movs	r2, #64
	movs	r1, #9
	movs	r0, #2
	bl	openserial_printLog
	.loc 1 1459 13
	b	.L213
.L212:
	.loc 1 1463 9
	movs	r1, #2
	ldr	r0, .L225+8
	bl	packetfunctions_tossFooter
	.loc 1 1466 26
	ldr	r3, .L225
	ldr	r3, [r3, #368]
	.loc 1 1466 38
	ldrb	r3, [r3, #195]	@ zero_extendqisi2
	.loc 1 1466 12
	cmp	r3, #0
	beq	.L220
	.loc 1 1472 9
	ldr	r3, .L225
	ldr	r3, [r3, #368]
	add	r2, sp, #16
	mov	r1, r2
	mov	r0, r3
	bl	ieee802154_retrieveHeader
	.loc 1 1475 30
	ldrb	r3, [sp, #16]	@ zero_extendqisi2
	.loc 1 1475 12
	cmp	r3, #0
	beq	.L221
	.loc 1 1481 22
	ldr	r3, .L225
	ldr	r3, [r3, #368]
	.loc 1 1481 68
	ldrb	r2, [sp, #18]	@ zero_extendqisi2
	.loc 1 1481 49
	strb	r2, [r3, #78]
	.loc 1 1482 22
	ldr	r3, .L225
	ldr	r3, [r3, #368]
	.loc 1 1482 62
	ldrb	r2, [sp, #25]	@ zero_extendqisi2
	.loc 1 1482 43
	strb	r2, [r3, #79]
	.loc 1 1483 31
	ldr	r3, .L225
	ldr	r3, [r3, #368]
	.loc 1 1483 16
	adds	r3, r3, #61
	.loc 1 1483 9
	mov	r2, r3
	add	r3, sp, #61
	ldr	r5, [r3]	@ unaligned
	ldr	r4, [r3, #4]	@ unaligned
	ldr	r0, [r3, #8]	@ unaligned
	ldr	r1, [r3, #12]	@ unaligned
	str	r5, [r2]	@ unaligned
	str	r4, [r2, #4]	@ unaligned
	str	r0, [r2, #8]	@ unaligned
	str	r1, [r2, #12]	@ unaligned
	ldrb	r3, [r3, #16]
	strb	r3, [r2, #16]
	.loc 1 1486 13
	ldr	r3, .L225
	ldr	r3, [r3, #368]
	add	r2, sp, #16
	mov	r1, r2
	mov	r0, r3
	bl	IEEE802154_security_acceptableLevel
	mov	r3, r0
	.loc 1 1486 12
	cmp	r3, #0
	beq	.L222
	.loc 1 1491 26
	ldr	r3, .L225
	ldr	r3, [r3, #368]
	.loc 1 1491 38
	ldrb	r3, [r3, #165]	@ zero_extendqisi2
	.loc 1 1491 12
	cmp	r3, #0
	beq	.L217
	.loc 1 1492 17
	ldr	r3, .L225
	ldr	r3, [r3, #368]
	mov	r0, r3
	bl	IEEE802154_security_incomingFrame
	mov	r3, r0
	.loc 1 1492 16
	cmp	r3, #0
	bne	.L223
.L217:
	.loc 1 1498 81
	ldrb	r3, [sp, #17]	@ zero_extendqisi2
	.loc 1 1498 9
	uxth	r3, r3
	mov	r1, r3
	ldr	r0, .L225+8
	bl	packetfunctions_tossHeader
	.loc 1 1501 13
	ldr	r3, .L225
	ldr	r2, [r3, #356]
	add	r3, sp, #16
	mov	r1, r2
	mov	r0, r3
	bl	isValidAck
	mov	r3, r0
	.loc 1 1501 12
	cmp	r3, #0
	beq	.L224
	.loc 1 1506 13
	bl	idmanager_getIsDAGroot
	mov	r3, r0
	.loc 1 1506 12
	cmp	r3, #0
	bne	.L219
	.loc 1 1507 56 discriminator 1
	ldr	r3, .L225
	ldr	r3, [r3, #368]
	.loc 1 1507 13 discriminator 1
	adds	r3, r3, #61
	mov	r0, r3
	bl	icmpv6rpl_isPreferredParent
	mov	r3, r0
	.loc 1 1506 47 discriminator 1
	cmp	r3, #0
	beq	.L219
	.loc 1 1508 45
	ldrsh	r3, [sp, #78]
	.loc 1 1508 13
	mov	r0, r3
	bl	synchronizeAck
.L219:
	.loc 1 1512 9
	movs	r1, #1
	ldr	r0, .L225
	bl	schedule_indicateTx
	.loc 1 1515 9
	ldr	r3, .L225
	ldr	r3, [r3, #356]
	movs	r1, #0
	mov	r0, r3
	bl	notif_sendDone
	.loc 1 1516 34
	ldr	r3, .L225
	movs	r2, #0
	str	r2, [r3, #356]
	b	.L213
.L220:
	.loc 1 1468 13
	nop
	b	.L213
.L221:
	.loc 1 1477 13
	nop
	b	.L213
.L222:
	.loc 1 1487 13
	nop
	b	.L213
.L223:
	.loc 1 1493 17
	nop
	b	.L213
.L224:
	.loc 1 1503 13
	nop
.L213:
.LBE20:
	.loc 1 1522 5 discriminator 1
	ldr	r3, .L225
	ldr	r3, [r3, #368]
	mov	r0, r3
	bl	openqueue_freePacketBuffer
	.loc 1 1525 31 discriminator 1
	ldr	r3, .L225
	movs	r2, #0
	str	r2, [r3, #368]
	.loc 1 1528 5 discriminator 1
	bl	endSlot
.L208:
	.loc 1 1529 1
	add	sp, sp, #84
.LCFI81:
	@ sp needed
	pop	{r4, r5, pc}
.L226:
	.align	2
.L225:
	.word	ieee154e_vars
	.word	isr_ieee154e_newSlot
	.word	ieee154e_vars+368
.LFE143:
	.size	activity_ti9, .-activity_ti9
	.section	.text.activity_ri2,"ax",%progbits
	.align	1
	.global	activity_ri2
	.syntax unified
	.thumb
	.thumb_func
	.type	activity_ri2, %function
activity_ri2:
.LFB144:
	.loc 1 1533 37
	@ args = 0, pretend = 0, frame = 0
	@ frame_needed = 0, uses_anonymous_args = 0
	push	{lr}
.LCFI82:
	sub	sp, sp, #12
.LCFI83:
	.loc 1 1535 5
	movs	r0, #16
	bl	changeState
	.loc 1 1540 5
	ldr	r3, .L228
	ldrb	r0, [r3, #420]	@ zero_extendqisi2
	.loc 1 1542 13
	ldr	r3, .L228
	ldr	r3, [r3, #372]
	.loc 1 1540 5
	add	r1, r3, #130
	ldr	r3, .L228
	ldr	r2, [r3, #424]
	ldr	r3, .L228+4
	str	r3, [sp]
	movs	r3, #1
	bl	opentimers_scheduleAbsolute
	.loc 1 1548 5
	ldr	r3, .L228
	ldrb	r3, [r3, #380]	@ zero_extendqisi2
	movs	r1, #2
	mov	r0, r3
	bl	radio_setFrequency
	.loc 1 1550 5
	bl	radio_rxEnable
	.loc 1 1552 33
	bl	sctimer_readCounter
	mov	r3, r0
	.loc 1 1552 31
	ldr	r2, .L228
	str	r3, [r2, #404]
	.loc 1 1553 35
	ldr	r3, .L228
	movs	r2, #1
	strb	r2, [r3, #412]
	.loc 1 1556 5
	movs	r0, #17
	bl	changeState
	.loc 1 1557 1
	nop
	add	sp, sp, #12
.LCFI84:
	@ sp needed
	ldr	pc, [sp], #4
.L229:
	.align	2
.L228:
	.word	ieee154e_vars
	.word	isr_ieee154e_timer
.LFE144:
	.size	activity_ri2, .-activity_ri2
	.section	.text.activity_rie1,"ax",%progbits
	.align	1
	.global	activity_rie1
	.syntax unified
	.thumb
	.thumb_func
	.type	activity_rie1, %function
activity_rie1:
.LFB145:
	.loc 1 1559 38
	@ args = 0, pretend = 0, frame = 0
	@ frame_needed = 0, uses_anonymous_args = 0
	push	{lr}
.LCFI85:
	sub	sp, sp, #12
.LCFI86:
	.loc 1 1561 5
	ldr	r3, .L231
	ldrb	r3, [r3, #352]	@ zero_extendqisi2
	uxth	r2, r3
	ldr	r3, .L231
	ldrh	r3, [r3, #6]
	str	r3, [sp]
	mov	r3, r2
	movs	r2, #57
	movs	r1, #9
	movs	r0, #2
	bl	openserial_printLog
	.loc 1 1566 5
	bl	endSlot
	.loc 1 1567 1
	nop
	add	sp, sp, #12
.LCFI87:
	@ sp needed
	ldr	pc, [sp], #4
.L232:
	.align	2
.L231:
	.word	ieee154e_vars
.LFE145:
	.size	activity_rie1, .-activity_rie1
	.section	.text.activity_ri3,"ax",%progbits
	.align	1
	.global	activity_ri3
	.syntax unified
	.thumb
	.thumb_func
	.type	activity_ri3, %function
activity_ri3:
.LFB146:
	.loc 1 1569 37
	@ args = 0, pretend = 0, frame = 0
	@ frame_needed = 0, uses_anonymous_args = 0
	push	{lr}
.LCFI88:
	sub	sp, sp, #12
.LCFI89:
	.loc 1 1571 5
	movs	r0, #18
	bl	changeState
	.loc 1 1574 5
	bl	radio_rxNow
	.loc 1 1578 5
	ldr	r3, .L234
	ldrb	r0, [r3, #420]	@ zero_extendqisi2
	.loc 1 1580 13
	ldr	r3, .L234
	ldr	r3, [r3, #372]
	.loc 1 1578 5
	add	r1, r3, #216
	ldr	r3, .L234
	ldr	r2, [r3, #424]
	ldr	r3, .L234+4
	str	r3, [sp]
	movs	r3, #1
	bl	opentimers_scheduleAbsolute
	.loc 1 1586 1
	nop
	add	sp, sp, #12
.LCFI90:
	@ sp needed
	ldr	pc, [sp], #4
.L235:
	.align	2
.L234:
	.word	ieee154e_vars
	.word	isr_ieee154e_timer
.LFE146:
	.size	activity_ri3, .-activity_ri3
	.section	.text.activity_rie2,"ax",%progbits
	.align	1
	.global	activity_rie2
	.syntax unified
	.thumb
	.thumb_func
	.type	activity_rie2, %function
activity_rie2:
.LFB147:
	.loc 1 1588 38
	@ args = 0, pretend = 0, frame = 0
	@ frame_needed = 0, uses_anonymous_args = 0
	push	{r3, lr}
.LCFI91:
	.loc 1 1590 5
	bl	endSlot
	.loc 1 1591 1
	nop
	pop	{r3, pc}
.LFE147:
	.size	activity_rie2, .-activity_rie2
	.section	.text.activity_ri4,"ax",%progbits
	.align	1
	.global	activity_ri4
	.syntax unified
	.thumb
	.thumb_func
	.type	activity_ri4, %function
activity_ri4:
.LFB148:
	.loc 1 1593 62
	@ args = 0, pretend = 0, frame = 8
	@ frame_needed = 0, uses_anonymous_args = 0
	push	{lr}
.LCFI92:
	sub	sp, sp, #20
.LCFI93:
	str	r0, [sp, #12]
	.loc 1 1596 5
	movs	r0, #19
	bl	changeState
	.loc 1 1601 5
	ldr	r3, .L238
	ldrb	r0, [r3, #420]	@ zero_extendqisi2
	.loc 1 1603 26
	ldr	r3, .L238
	ldrh	r3, [r3, #418]
	.loc 1 1601 5
	mov	r1, r3
	ldr	r3, .L238
	ldr	r2, [r3, #424]
	ldr	r3, .L238+4
	str	r3, [sp]
	movs	r3, #1
	bl	opentimers_scheduleAbsolute
	.loc 1 1610 36
	ldr	r2, .L238
	ldr	r3, [sp, #12]
	str	r3, [r2, #372]
	.loc 1 1613 36
	ldr	r2, .L238
	ldr	r3, [sp, #12]
	str	r3, [r2, #376]
	.loc 1 1616 5
	ldr	r3, .L238
	ldrb	r0, [r3, #420]	@ zero_extendqisi2
	.loc 1 1618 13
	ldr	r3, .L238
	ldr	r3, [r3, #372]
	.loc 1 1616 5
	add	r1, r3, #166
	ldr	r3, .L238
	ldr	r2, [r3, #424]
	ldr	r3, .L238+8
	str	r3, [sp]
	movs	r3, #1
	bl	opentimers_scheduleAbsolute
	.loc 1 1624 1
	nop
	add	sp, sp, #20
.LCFI94:
	@ sp needed
	ldr	pc, [sp], #4
.L239:
	.align	2
.L238:
	.word	ieee154e_vars
	.word	isr_ieee154e_newSlot
	.word	isr_ieee154e_timer
.LFE148:
	.size	activity_ri4, .-activity_ri4
	.section	.text.activity_rie3,"ax",%progbits
	.align	1
	.global	activity_rie3
	.syntax unified
	.thumb
	.thumb_func
	.type	activity_rie3, %function
activity_rie3:
.LFB149:
	.loc 1 1626 38
	@ args = 0, pretend = 0, frame = 0
	@ frame_needed = 0, uses_anonymous_args = 0
	push	{lr}
.LCFI95:
	sub	sp, sp, #12
.LCFI96:
	.loc 1 1629 5
	ldr	r3, .L241
	ldrb	r3, [r3, #352]	@ zero_extendqisi2
	uxth	r2, r3
	ldr	r3, .L241
	ldrh	r3, [r3, #6]
	str	r3, [sp]
	mov	r3, r2
	movs	r2, #59
	movs	r1, #9
	movs	r0, #2
	bl	openserial_printLog
	.loc 1 1633 5
	bl	endSlot
	.loc 1 1634 1
	nop
	add	sp, sp, #12
.LCFI97:
	@ sp needed
	ldr	pc, [sp], #4
.L242:
	.align	2
.L241:
	.word	ieee154e_vars
.LFE149:
	.size	activity_rie3, .-activity_rie3
	.section	.text.activity_ri5,"ax",%progbits
	.align	1
	.global	activity_ri5
	.syntax unified
	.thumb
	.thumb_func
	.type	activity_ri5, %function
activity_ri5:
.LFB150:
	.loc 1 1636 62
	@ args = 0, pretend = 0, frame = 112
	@ frame_needed = 0, uses_anonymous_args = 0
	push	{r4, r5, lr}
.LCFI98:
	sub	sp, sp, #124
.LCFI99:
	str	r0, [sp, #12]
	.loc 1 1638 14
	movs	r3, #0
	strh	r3, [sp, #54]	@ movhi
	.loc 1 1643 5
	movs	r0, #20
	bl	changeState
	.loc 1 1647 5
	ldr	r3, .L269
	ldrb	r0, [r3, #420]	@ zero_extendqisi2
	.loc 1 1649 26
	ldr	r3, .L269
	ldrh	r3, [r3, #418]
	.loc 1 1647 5
	mov	r1, r3
	ldr	r3, .L269
	ldr	r2, [r3, #424]
	ldr	r3, .L269+4
	str	r3, [sp]
	movs	r3, #1
	bl	opentimers_scheduleAbsolute
	.loc 1 1656 5
	bl	radio_rfOff
	.loc 1 1657 34
	bl	sctimer_readCounter
	mov	r2, r0
	.loc 1 1657 71
	ldr	r3, .L269
	ldr	r3, [r3, #404]
	.loc 1 1657 56
	subs	r2, r2, r3
	.loc 1 1657 31
	ldr	r3, .L269
	ldr	r3, [r3, #408]
	add	r3, r3, r2
	ldr	r2, .L269
	str	r3, [r2, #408]
	.loc 1 1659 34
	movs	r0, #9
	bl	openqueue_getFreePacketBuffer
	mov	r3, r0
	.loc 1 1659 32
	ldr	r2, .L269
	str	r3, [r2, #360]
	.loc 1 1660 22
	ldr	r3, .L269
	ldr	r3, [r3, #360]
	.loc 1 1660 8
	cmp	r3, #0
	bne	.L244
	.loc 1 1662 9
	movs	r3, #0
	str	r3, [sp]
	movs	r3, #0
	movs	r2, #70
	movs	r1, #9
	movs	r0, #2
	bl	openserial_printLog
	.loc 1 1664 9
	bl	endSlot
	.loc 1 1665 9
	b	.L243
.L244:
	.loc 1 1669 18
	ldr	r3, .L269
	ldr	r3, [r3, #360]
	.loc 1 1669 41
	movs	r2, #9
	strb	r2, [r3]
	.loc 1 1670 18
	ldr	r3, .L269
	ldr	r3, [r3, #360]
	.loc 1 1670 39
	movs	r2, #9
	strb	r2, [r3, #1]
	.loc 1 1674 62
	ldr	r3, .L269
	ldr	r2, [r3, #360]
	.loc 1 1674 22
	ldr	r3, .L269
	ldr	r3, [r3, #360]
	.loc 1 1674 47
	adds	r2, r2, #197
	.loc 1 1674 45
	str	r2, [r3, #4]
	.loc 1 1676 30
	ldr	r3, .L269
	ldr	r3, [r3, #360]
	.loc 1 1675 9
	ldr	r0, [r3, #4]
	.loc 1 1677 45
	ldr	r3, .L269
	ldr	r3, [r3, #360]
	.loc 1 1677 30
	add	r1, r3, #8
	.loc 1 1679 31
	ldr	r3, .L269
	ldr	r3, [r3, #360]
	.loc 1 1675 9
	add	r4, r3, #193
	.loc 1 1680 31
	ldr	r3, .L269
	ldr	r3, [r3, #360]
	.loc 1 1675 9
	adds	r3, r3, #194
	.loc 1 1681 31
	ldr	r2, .L269
	ldr	r2, [r2, #360]
	.loc 1 1675 9
	adds	r2, r2, #195
	str	r2, [sp, #4]
	str	r3, [sp]
	mov	r3, r4
	movs	r2, #130
	bl	radio_getReceivedFrame
	.loc 1 1685 26
	ldr	r3, .L269
	ldr	r3, [r3, #360]
	.loc 1 1685 39
	ldrsh	r3, [r3, #8]
	.loc 1 1685 12
	cmp	r3, #1
	ble	.L246
	.loc 1 1686 26 discriminator 1
	ldr	r3, .L269
	ldr	r3, [r3, #360]
	.loc 1 1686 39 discriminator 1
	ldrsh	r3, [r3, #8]
	.loc 1 1685 61 discriminator 1
	cmp	r3, #128
	ble	.L247
.L246:
	.loc 1 1688 13
	ldr	r3, .L269
	ldr	r3, [r3, #360]
	ldrsh	r3, [r3, #8]
	uxth	r3, r3
	movs	r2, #2
	str	r2, [sp]
	movs	r2, #64
	movs	r1, #9
	movs	r0, #2
	bl	openserial_printLog
	.loc 1 1691 13
	b	.L248
.L247:
	.loc 1 1695 9
	movs	r1, #2
	ldr	r0, .L269+8
	bl	packetfunctions_tossFooter
	.loc 1 1698 26
	ldr	r3, .L269
	ldr	r3, [r3, #360]
	.loc 1 1698 39
	ldrb	r3, [r3, #195]	@ zero_extendqisi2
	.loc 1 1698 12
	cmp	r3, #0
	beq	.L263
	.loc 1 1704 9
	ldr	r3, .L269
	ldr	r3, [r3, #360]
	add	r2, sp, #56
	mov	r1, r2
	mov	r0, r3
	bl	ieee802154_retrieveHeader
	.loc 1 1707 30
	ldrb	r3, [sp, #56]	@ zero_extendqisi2
	.loc 1 1707 12
	cmp	r3, #0
	beq	.L264
	.loc 1 1713 22
	ldr	r3, .L269
	ldr	r3, [r3, #360]
	.loc 1 1713 69
	ldrb	r2, [sp, #58]	@ zero_extendqisi2
	.loc 1 1713 50
	strb	r2, [r3, #78]
	.loc 1 1714 22
	ldr	r3, .L269
	ldr	r3, [r3, #360]
	.loc 1 1714 63
	ldrb	r2, [sp, #65]	@ zero_extendqisi2
	.loc 1 1714 44
	strb	r2, [r3, #79]
	.loc 1 1715 22
	ldr	r3, .L269
	ldr	r3, [r3, #360]
	.loc 1 1715 73
	ldrb	r2, [sp, #63]	@ zero_extendqisi2
	.loc 1 1715 54
	strb	r2, [r3, #157]
	.loc 1 1716 31
	ldr	r3, .L269
	ldr	r3, [r3, #360]
	.loc 1 1716 16
	adds	r3, r3, #61
	.loc 1 1716 9
	mov	r2, r3
	add	r3, sp, #101
	ldr	r5, [r3]	@ unaligned
	ldr	r4, [r3, #4]	@ unaligned
	ldr	r0, [r3, #8]	@ unaligned
	ldr	r1, [r3, #12]	@ unaligned
	str	r5, [r2]	@ unaligned
	str	r4, [r2, #4]	@ unaligned
	str	r0, [r2, #8]	@ unaligned
	str	r1, [r2, #12]	@ unaligned
	ldrb	r3, [r3, #16]
	strb	r3, [r2, #16]
	.loc 1 1719 13
	ldr	r3, .L269
	ldr	r3, [r3, #360]
	add	r2, sp, #56
	mov	r1, r2
	mov	r0, r3
	bl	IEEE802154_security_acceptableLevel
	mov	r3, r0
	.loc 1 1719 12
	cmp	r3, #0
	beq	.L265
	.loc 1 1724 26
	ldr	r3, .L269
	ldr	r3, [r3, #360]
	.loc 1 1724 39
	ldrb	r3, [r3, #165]	@ zero_extendqisi2
	.loc 1 1724 12
	cmp	r3, #0
	beq	.L252
	.loc 1 1725 17
	bl	IEEE802154_security_isConfigured
	mov	r3, r0
	.loc 1 1725 16
	cmp	r3, #0
	beq	.L253
	.loc 1 1726 21
	ldr	r3, .L269
	ldr	r3, [r3, #360]
	mov	r0, r3
	bl	IEEE802154_security_incomingFrame
	mov	r3, r0
	.loc 1 1726 20
	cmp	r3, #0
	beq	.L252
	.loc 1 1727 21
	b	.L248
.L253:
	.loc 1 1731 35
	ldr	r3, .L269
	ldr	r3, [r3, #360]
	.loc 1 1731 48
	ldrb	r3, [r3, #78]	@ zero_extendqisi2
	.loc 1 1731 21
	cmp	r3, #0
	bne	.L266
	.loc 1 1733 57
	ldr	r3, .L269
	ldr	r3, [r3, #360]
	.loc 1 1733 70
	ldrb	r3, [r3, #185]	@ zero_extendqisi2
	.loc 1 1732 17
	uxth	r3, r3
	mov	r1, r3
	ldr	r0, .L269+8
	bl	packetfunctions_tossFooter
.L252:
	.loc 1 1740 82
	ldrb	r3, [sp, #57]	@ zero_extendqisi2
	.loc 1 1740 9
	uxth	r3, r3
	mov	r1, r3
	ldr	r0, .L269+8
	bl	packetfunctions_tossHeader
	.loc 1 1743 34
	ldrb	r3, [sp, #58]	@ zero_extendqisi2
	.loc 1 1742 12
	cmp	r3, #0
	bne	.L255
	.loc 1 1745 34
	ldrb	r3, [sp, #63]	@ zero_extendqisi2
	.loc 1 1743 68
	cmp	r3, #1
	bne	.L255
	.loc 1 1746 17
	movs	r0, #4
	bl	idmanager_getMyID
	mov	r2, r0
	add	r3, sp, #56
	adds	r3, r3, #11
	mov	r1, r2
	mov	r0, r3
	bl	packetfunctions_sameAddress
	mov	r3, r0
	.loc 1 1745 57
	cmp	r3, #0
	beq	.L255
	.loc 1 1748 17
	ldr	r3, .L269
	ldr	r3, [r3, #360]
	add	r2, sp, #54
	mov	r1, r2
	mov	r0, r3
	bl	ieee154e_processIEs
	mov	r3, r0
	.loc 1 1748 16
	cmp	r3, #0
	beq	.L267
.L255:
	.loc 1 1755 9
	ldrh	r3, [sp, #54]
	mov	r1, r3
	ldr	r0, .L269+8
	bl	packetfunctions_tossHeader
	.loc 1 1758 40
	ldr	r2, .L269
	ldr	r3, [sp, #12]
	str	r3, [r2, #372]
	.loc 1 1761 13
	add	r3, sp, #56
	mov	r0, r3
	bl	isValidRxFrame
	mov	r3, r0
	.loc 1 1761 12
	cmp	r3, #0
	beq	.L268
	.loc 1 1766 13
	add	r3, sp, #16
	mov	r0, r3
	bl	icmpv6rpl_getPreferredParentEui64
	mov	r3, r0
	.loc 1 1766 12
	cmp	r3, #0
	beq	.L257
	.loc 1 1767 17
	add	r2, sp, #16
	add	r3, sp, #56
	adds	r3, r3, #45
	mov	r1, r2
	mov	r0, r3
	bl	packetfunctions_sameAddress
	mov	r3, r0
	.loc 1 1767 16
	cmp	r3, #0
	beq	.L257
	.loc 1 1768 55
	ldr	r3, .L269
	movs	r2, #1
	str	r2, [r3, #432]
.L257:
	.loc 1 1774 91
	ldr	r3, .L269
	ldr	r3, [r3, #376]
	.loc 1 1773 57
	uxth	r3, r3
	rsb	r3, r3, #173
	uxth	r2, r3
	.loc 1 1773 22
	ldr	r3, .L269
	ldr	r3, [r3, #360]
	.loc 1 1773 57
	sxth	r2, r2
	.loc 1 1773 55
	strh	r2, [r3, #162]	@ movhi
	.loc 1 1777 30
	ldrb	r3, [sp, #61]	@ zero_extendqisi2
	.loc 1 1777 12
	cmp	r3, #1
	bne	.L258
	.loc 1 1777 65 discriminator 1
	ldr	r3, .L269
	ldrb	r3, [r3, #413]	@ zero_extendqisi2
	.loc 1 1777 49 discriminator 1
	cmp	r3, #1
	bne	.L258
	.loc 1 1781 13
	ldr	r3, .L269
	ldrb	r0, [r3, #420]	@ zero_extendqisi2
	.loc 1 1783 21
	ldr	r3, .L269
	ldr	r3, [r3, #372]
	.loc 1 1781 13
	add	r1, r3, #163
	ldr	r3, .L269
	ldr	r2, [r3, #424]
	ldr	r3, .L269+12
	str	r3, [sp]
	movs	r3, #1
	bl	opentimers_scheduleAbsolute
	.loc 1 1818 9
	b	.L243
.L270:
	.align	2
.L269:
	.word	ieee154e_vars
	.word	isr_ieee154e_newSlot
	.word	ieee154e_vars+360
	.word	isr_ieee154e_timer
.L258:
	.loc 1 1795 21
	bl	idmanager_getIsDAGroot
	mov	r3, r0
	.loc 1 1794 16
	cmp	r3, #0
	bne	.L260
	.loc 1 1797 72
	ldr	r3, .L271
	ldr	r3, [r3, #360]
	.loc 1 1797 29
	adds	r3, r3, #61
	mov	r0, r3
	bl	icmpv6rpl_isPreferredParent
	mov	r3, r0
	.loc 1 1795 55
	cmp	r3, #0
	bne	.L261
	.loc 1 1798 29
	bl	IEEE802154_security_isConfigured
	mov	r3, r0
	.loc 1 1797 110
	cmp	r3, #0
	beq	.L261
	.loc 1 1800 29
	add	r3, sp, #36
	mov	r0, r3
	bl	icmpv6rpl_getPreferredParentEui64
	mov	r3, r0
	.loc 1 1798 73
	cmp	r3, #0
	beq	.L261
	.loc 1 1802 37
	add	r3, sp, #36
	mov	r0, r3
	bl	icmpv6rpl_getPreferredParentEui64
	mov	r3, r0
	.loc 1 1800 90
	cmp	r3, #0
	beq	.L260
	.loc 1 1803 37
	add	r3, sp, #36
	movs	r1, #1
	mov	r0, r3
	bl	schedule_hasNegotiatedCellToNeighbor
	mov	r3, r0
	.loc 1 1802 88
	cmp	r3, #0
	bne	.L260
.L261:
	.loc 1 1807 17
	ldr	r3, .L271
	ldr	r3, [r3, #376]
	mov	r0, r3
	bl	synchronizePacket
.L260:
	.loc 1 1810 13
	ldr	r3, .L271
	ldr	r3, [r3, #360]
	mov	r0, r3
	bl	notif_receive
	.loc 1 1812 40
	ldr	r3, .L271
	movs	r2, #0
	str	r2, [r3, #360]
	.loc 1 1814 13
	bl	endSlot
	.loc 1 1818 9
	b	.L243
.L263:
	.loc 1 1700 13
	nop
	b	.L248
.L264:
	.loc 1 1709 13
	nop
	b	.L248
.L265:
	.loc 1 1720 13
	nop
	b	.L248
.L266:
	.loc 1 1735 17
	nop
	b	.L248
.L267:
	.loc 1 1750 17
	nop
	b	.L248
.L268:
	.loc 1 1763 13
	nop
.L248:
	.loc 1 1823 5 discriminator 1
	ldr	r3, .L271
	ldr	r3, [r3, #360]
	mov	r0, r3
	bl	openqueue_freePacketBuffer
	.loc 1 1826 32 discriminator 1
	ldr	r3, .L271
	movs	r2, #0
	str	r2, [r3, #360]
	.loc 1 1829 5 discriminator 1
	bl	endSlot
.L243:
	.loc 1 1830 1
	add	sp, sp, #124
.LCFI100:
	@ sp needed
	pop	{r4, r5, pc}
.L272:
	.align	2
.L271:
	.word	ieee154e_vars
.LFE150:
	.size	activity_ri5, .-activity_ri5
	.section	.text.activity_ri6,"ax",%progbits
	.align	1
	.global	activity_ri6
	.syntax unified
	.thumb
	.thumb_func
	.type	activity_ri6, %function
activity_ri6:
.LFB151:
	.loc 1 1832 37
	@ args = 0, pretend = 0, frame = 0
	@ frame_needed = 0, uses_anonymous_args = 0
	push	{lr}
.LCFI101:
	sub	sp, sp, #12
.LCFI102:
	.loc 1 1835 5
	movs	r0, #21
	bl	changeState
	.loc 1 1839 5
	ldr	r3, .L278
	ldrb	r0, [r3, #420]	@ zero_extendqisi2
	.loc 1 1841 13
	ldr	r3, .L278
	ldr	r3, [r3, #372]
	.loc 1 1839 5
	add	r1, r3, #176
	ldr	r3, .L278
	ldr	r2, [r3, #424]
	ldr	r3, .L278+4
	str	r3, [sp]
	movs	r3, #1
	bl	opentimers_scheduleAbsolute
	.loc 1 1848 31
	movs	r0, #9
	bl	openqueue_getFreePacketBuffer
	mov	r3, r0
	.loc 1 1848 29
	ldr	r2, .L278
	str	r3, [r2, #364]
	.loc 1 1849 22
	ldr	r3, .L278
	ldr	r3, [r3, #364]
	.loc 1 1849 8
	cmp	r3, #0
	bne	.L274
	.loc 1 1851 9
	movs	r3, #0
	str	r3, [sp]
	movs	r3, #0
	movs	r2, #70
	movs	r1, #9
	movs	r0, #2
	bl	openserial_printLog
	.loc 1 1853 9
	ldr	r3, .L278
	ldr	r3, [r3, #360]
	mov	r0, r3
	bl	notif_receive
	.loc 1 1855 36
	ldr	r3, .L278
	movs	r2, #0
	str	r2, [r3, #360]
	.loc 1 1857 9
	bl	endSlot
	.loc 1 1858 9
	b	.L273
.L274:
	.loc 1 1862 18
	ldr	r3, .L278
	ldr	r3, [r3, #364]
	.loc 1 1862 38
	movs	r2, #9
	strb	r2, [r3]
	.loc 1 1863 18
	ldr	r3, .L278
	ldr	r3, [r3, #364]
	.loc 1 1863 36
	movs	r2, #9
	strb	r2, [r3, #1]
	.loc 1 1868 87
	ldr	r3, .L278
	ldr	r3, [r3, #376]
	.loc 1 1867 36
	uxth	r3, r3
	rsb	r3, r3, #173
	uxth	r3, r3
	sxth	r2, r3
	.loc 1 1867 34
	ldr	r3, .L278
	strh	r2, [r3, #416]	@ movhi
	.loc 1 1871 18
	ldr	r3, .L278
	ldr	r3, [r3, #364]
	.loc 1 1871 43
	movs	r2, #2
	strb	r2, [r3, #78]
	.loc 1 1872 52
	ldr	r3, .L278
	ldr	r2, [r3, #360]
	.loc 1 1872 18
	ldr	r3, .L278
	ldr	r3, [r3, #364]
	.loc 1 1872 65
	ldrb	r2, [r2, #79]	@ zero_extendqisi2
	.loc 1 1872 37
	strb	r2, [r3, #79]
	.loc 1 1876 62
	ldr	r3, .L278
	ldr	r2, [r3, #360]
	.loc 1 1876 18
	ldr	r3, .L278
	ldr	r3, [r3, #364]
	.loc 1 1876 75
	ldrb	r2, [r2, #165]	@ zero_extendqisi2
	.loc 1 1876 47
	strb	r2, [r3, #165]
	.loc 1 1877 58
	ldr	r3, .L278
	ldr	r2, [r3, #360]
	.loc 1 1877 18
	ldr	r3, .L278
	ldr	r3, [r3, #364]
	.loc 1 1877 71
	ldrb	r2, [r2, #166]	@ zero_extendqisi2
	.loc 1 1877 43
	strb	r2, [r3, #166]
	.loc 1 1878 57
	ldr	r3, .L278
	ldr	r2, [r3, #360]
	.loc 1 1878 18
	ldr	r3, .L278
	ldr	r3, [r3, #364]
	.loc 1 1878 70
	ldrb	r2, [r2, #167]	@ zero_extendqisi2
	.loc 1 1878 42
	strb	r2, [r3, #167]
	.loc 1 1880 5
	ldr	r3, .L278
	ldr	r0, [r3, #364]
	.loc 1 1881 43
	ldr	r3, .L278
	ldr	r3, [r3, #364]
	.loc 1 1880 5
	ldrb	r1, [r3, #78]	@ zero_extendqisi2
	.loc 1 1883 43
	ldr	r3, .L278
	ldr	r3, [r3, #360]
	.loc 1 1880 5
	ldrb	r2, [r3, #79]	@ zero_extendqisi2
	.loc 1 1884 45
	ldr	r3, .L278
	ldr	r3, [r3, #360]
	.loc 1 1880 5
	adds	r3, r3, #61
	str	r3, [sp]
	mov	r3, r2
	movs	r2, #0
	bl	ieee802154_prependHeader
	.loc 1 1888 22
	ldr	r3, .L278
	ldr	r3, [r3, #364]
	.loc 1 1888 32
	ldrb	r3, [r3, #165]	@ zero_extendqisi2
	.loc 1 1888 8
	cmp	r3, #0
	beq	.L276
	.loc 1 1889 13
	ldr	r3, .L278
	ldr	r3, [r3, #364]
	mov	r0, r3
	bl	IEEE802154_security_outgoingFrameSecurity
	mov	r3, r0
	.loc 1 1889 12
	cmp	r3, #0
	beq	.L276
	.loc 1 1890 13
	ldr	r3, .L278
	ldr	r3, [r3, #364]
	mov	r0, r3
	bl	openqueue_freePacketBuffer
	.loc 1 1891 13
	bl	endSlot
	.loc 1 1892 13
	b	.L273
.L276:
	.loc 1 1896 9
	movs	r1, #2
	ldr	r0, .L278+8
	bl	packetfunctions_reserveFooter
	mov	r3, r0
	.loc 1 1896 8
	cmp	r3, #1
	bne	.L277
	.loc 1 1897 9
	bl	endSlot
	.loc 1 1898 9
	b	.L273
.L277:
	.loc 1 1901 5
	ldr	r3, .L278
	ldrb	r3, [r3, #380]	@ zero_extendqisi2
	movs	r1, #1
	mov	r0, r3
	bl	radio_setFrequency
	.loc 1 1904 35
	ldr	r3, .L278
	ldr	r3, [r3, #364]
	.loc 1 1904 5
	ldr	r2, [r3, #4]
	.loc 1 1904 69
	ldr	r3, .L278
	ldr	r3, [r3, #364]
	.loc 1 1904 79
	ldrsh	r3, [r3, #8]
	.loc 1 1904 5
	uxth	r3, r3
	mov	r1, r3
	mov	r0, r2
	bl	radio_loadPacket
	.loc 1 1907 5
	bl	radio_txEnable
	.loc 1 1908 33
	bl	sctimer_readCounter
	mov	r3, r0
	.loc 1 1908 31
	ldr	r2, .L278
	str	r3, [r2, #404]
	.loc 1 1909 35
	ldr	r3, .L278
	movs	r2, #1
	strb	r2, [r3, #412]
	.loc 1 1911 5
	movs	r0, #22
	bl	changeState
.L273:
	.loc 1 1914 1
	add	sp, sp, #12
.LCFI103:
	@ sp needed
	ldr	pc, [sp], #4
.L279:
	.align	2
.L278:
	.word	ieee154e_vars
	.word	isr_ieee154e_timer
	.word	ieee154e_vars+364
.LFE151:
	.size	activity_ri6, .-activity_ri6
	.section	.text.activity_rie4,"ax",%progbits
	.align	1
	.global	activity_rie4
	.syntax unified
	.thumb
	.thumb_func
	.type	activity_rie4, %function
activity_rie4:
.LFB152:
	.loc 1 1916 38
	@ args = 0, pretend = 0, frame = 0
	@ frame_needed = 0, uses_anonymous_args = 0
	push	{lr}
.LCFI104:
	sub	sp, sp, #12
.LCFI105:
	.loc 1 1918 5
	ldr	r3, .L281
	ldrb	r3, [r3, #352]	@ zero_extendqisi2
	uxth	r2, r3
	ldr	r3, .L281
	ldrh	r3, [r3, #6]
	str	r3, [sp]
	mov	r3, r2
	movs	r2, #58
	movs	r1, #9
	movs	r0, #2
	bl	openserial_printLog
	.loc 1 1922 5
	bl	endSlot
	.loc 1 1923 1
	nop
	add	sp, sp, #12
.LCFI106:
	@ sp needed
	ldr	pc, [sp], #4
.L282:
	.align	2
.L281:
	.word	ieee154e_vars
.LFE152:
	.size	activity_rie4, .-activity_rie4
	.section	.text.activity_ri7,"ax",%progbits
	.align	1
	.global	activity_ri7
	.syntax unified
	.thumb
	.thumb_func
	.type	activity_ri7, %function
activity_ri7:
.LFB153:
	.loc 1 1925 37
	@ args = 0, pretend = 0, frame = 0
	@ frame_needed = 0, uses_anonymous_args = 0
	push	{lr}
.LCFI107:
	sub	sp, sp, #12
.LCFI108:
	.loc 1 1927 5
	movs	r0, #23
	bl	changeState
	.loc 1 1931 5
	ldr	r3, .L284
	ldrb	r0, [r3, #420]	@ zero_extendqisi2
	.loc 1 1933 13
	ldr	r3, .L284
	ldr	r3, [r3, #372]
	.loc 1 1931 5
	add	r1, r3, #220
	ldr	r3, .L284
	ldr	r2, [r3, #424]
	ldr	r3, .L284+4
	str	r3, [sp]
	movs	r3, #1
	bl	opentimers_scheduleAbsolute
	.loc 1 1940 5
	bl	radio_txNow
	.loc 1 1942 1
	nop
	add	sp, sp, #12
.LCFI109:
	@ sp needed
	ldr	pc, [sp], #4
.L285:
	.align	2
.L284:
	.word	ieee154e_vars
	.word	isr_ieee154e_timer
.LFE153:
	.size	activity_ri7, .-activity_ri7
	.section	.text.activity_rie5,"ax",%progbits
	.align	1
	.global	activity_rie5
	.syntax unified
	.thumb
	.thumb_func
	.type	activity_rie5, %function
activity_rie5:
.LFB154:
	.loc 1 1944 38
	@ args = 0, pretend = 0, frame = 0
	@ frame_needed = 0, uses_anonymous_args = 0
	push	{lr}
.LCFI110:
	sub	sp, sp, #12
.LCFI111:
	.loc 1 1946 5
	ldr	r3, .L287
	ldrb	r3, [r3, #352]	@ zero_extendqisi2
	uxth	r2, r3
	ldr	r3, .L287
	ldrh	r3, [r3, #6]
	str	r3, [sp]
	mov	r3, r2
	movs	r2, #61
	movs	r1, #9
	movs	r0, #2
	bl	openserial_printLog
	.loc 1 1950 5
	bl	endSlot
	.loc 1 1951 1
	nop
	add	sp, sp, #12
.LCFI112:
	@ sp needed
	ldr	pc, [sp], #4
.L288:
	.align	2
.L287:
	.word	ieee154e_vars
.LFE154:
	.size	activity_rie5, .-activity_rie5
	.section	.text.activity_ri8,"ax",%progbits
	.align	1
	.global	activity_ri8
	.syntax unified
	.thumb
	.thumb_func
	.type	activity_ri8, %function
activity_ri8:
.LFB155:
	.loc 1 1953 62
	@ args = 0, pretend = 0, frame = 8
	@ frame_needed = 0, uses_anonymous_args = 0
	push	{lr}
.LCFI113:
	sub	sp, sp, #20
.LCFI114:
	str	r0, [sp, #12]
	.loc 1 1955 5
	movs	r0, #24
	bl	changeState
	.loc 1 1959 5
	ldr	r3, .L290
	ldrb	r0, [r3, #420]	@ zero_extendqisi2
	.loc 1 1961 26
	ldr	r3, .L290
	ldrh	r3, [r3, #418]
	.loc 1 1959 5
	mov	r1, r3
	ldr	r3, .L290
	ldr	r2, [r3, #424]
	ldr	r3, .L290+4
	str	r3, [sp]
	movs	r3, #1
	bl	opentimers_scheduleAbsolute
	.loc 1 1968 36
	ldr	r2, .L290
	ldr	r3, [sp, #12]
	str	r3, [r2, #372]
	.loc 1 1972 5
	ldr	r3, .L290
	ldrb	r0, [r3, #420]	@ zero_extendqisi2
	.loc 1 1974 13
	ldr	r3, .L290
	ldr	r3, [r3, #372]
	.loc 1 1972 5
	add	r1, r3, #100
	ldr	r3, .L290
	ldr	r2, [r3, #424]
	ldr	r3, .L290+8
	str	r3, [sp]
	movs	r3, #1
	bl	opentimers_scheduleAbsolute
	.loc 1 1980 1
	nop
	add	sp, sp, #20
.LCFI115:
	@ sp needed
	ldr	pc, [sp], #4
.L291:
	.align	2
.L290:
	.word	ieee154e_vars
	.word	isr_ieee154e_newSlot
	.word	isr_ieee154e_timer
.LFE155:
	.size	activity_ri8, .-activity_ri8
	.section	.text.activity_rie6,"ax",%progbits
	.align	1
	.global	activity_rie6
	.syntax unified
	.thumb
	.thumb_func
	.type	activity_rie6, %function
activity_rie6:
.LFB156:
	.loc 1 1982 38
	@ args = 0, pretend = 0, frame = 0
	@ frame_needed = 0, uses_anonymous_args = 0
	push	{lr}
.LCFI116:
	sub	sp, sp, #12
.LCFI117:
	.loc 1 1984 5
	ldr	r3, .L293
	ldrb	r3, [r3, #352]	@ zero_extendqisi2
	uxth	r2, r3
	ldr	r3, .L293
	ldrh	r3, [r3, #6]
	str	r3, [sp]
	mov	r3, r2
	movs	r2, #62
	movs	r1, #9
	movs	r0, #2
	bl	openserial_printLog
	.loc 1 1988 5
	bl	endSlot
	.loc 1 1989 1
	nop
	add	sp, sp, #12
.LCFI118:
	@ sp needed
	ldr	pc, [sp], #4
.L294:
	.align	2
.L293:
	.word	ieee154e_vars
.LFE156:
	.size	activity_rie6, .-activity_rie6
	.section	.text.activity_ri9,"ax",%progbits
	.align	1
	.global	activity_ri9
	.syntax unified
	.thumb
	.thumb_func
	.type	activity_ri9, %function
activity_ri9:
.LFB157:
	.loc 1 1991 62
	@ args = 0, pretend = 0, frame = 8
	@ frame_needed = 0, uses_anonymous_args = 0
	push	{lr}
.LCFI119:
	sub	sp, sp, #20
.LCFI120:
	str	r0, [sp, #12]
	.loc 1 1993 5
	movs	r0, #25
	bl	changeState
	.loc 1 1997 5
	ldr	r3, .L299
	ldrb	r0, [r3, #420]	@ zero_extendqisi2
	.loc 1 1999 26
	ldr	r3, .L299
	ldrh	r3, [r3, #418]
	.loc 1 1997 5
	mov	r1, r3
	ldr	r3, .L299
	ldr	r2, [r3, #424]
	ldr	r3, .L299+4
	str	r3, [sp]
	movs	r3, #1
	bl	opentimers_scheduleAbsolute
	.loc 1 2006 36
	ldr	r2, .L299
	ldr	r3, [sp, #12]
	str	r3, [r2, #372]
	.loc 1 2009 5
	ldr	r3, .L299
	ldr	r3, [r3, #364]
	mov	r0, r3
	bl	openqueue_freePacketBuffer
	.loc 1 2012 29
	ldr	r3, .L299
	movs	r2, #0
	str	r2, [r3, #364]
	.loc 1 2014 10
	bl	idmanager_getIsDAGroot
	mov	r3, r0
	.loc 1 2014 8
	cmp	r3, #0
	bne	.L296
	.loc 1 2015 53 discriminator 1
	ldr	r3, .L299
	ldr	r3, [r3, #360]
	.loc 1 2015 10 discriminator 1
	adds	r3, r3, #61
	mov	r0, r3
	bl	icmpv6rpl_isPreferredParent
	mov	r3, r0
	.loc 1 2014 44 discriminator 1
	cmp	r3, #0
	bne	.L297
.L296:
	.loc 1 2016 9
	bl	IEEE802154_security_isConfigured
	mov	r3, r0
	.loc 1 2015 92
	cmp	r3, #0
	bne	.L298
.L297:
	.loc 1 2017 9
	ldr	r3, .L299
	ldr	r3, [r3, #376]
	mov	r0, r3
	bl	synchronizePacket
.L298:
	.loc 1 2021 5
	ldr	r3, .L299
	ldr	r3, [r3, #360]
	mov	r0, r3
	bl	notif_receive
	.loc 1 2024 32
	ldr	r3, .L299
	movs	r2, #0
	str	r2, [r3, #360]
	.loc 1 2027 5
	bl	endSlot
	.loc 1 2028 1
	nop
	add	sp, sp, #20
.LCFI121:
	@ sp needed
	ldr	pc, [sp], #4
.L300:
	.align	2
.L299:
	.word	ieee154e_vars
	.word	isr_ieee154e_newSlot
.LFE157:
	.size	activity_ri9, .-activity_ri9
	.section	.text.isValidRxFrame,"ax",%progbits
	.align	1
	.global	isValidRxFrame
	.syntax unified
	.thumb
	.thumb_func
	.type	isValidRxFrame, %function
isValidRxFrame:
.LFB158:
	.loc 1 2045 75
	@ args = 0, pretend = 0, frame = 8
	@ frame_needed = 0, uses_anonymous_args = 0
	push	{r4, lr}
.LCFI122:
	sub	sp, sp, #8
.LCFI123:
	str	r0, [sp, #4]
	.loc 1 2047 23
	ldr	r3, [sp, #4]
	ldrb	r3, [r3]	@ zero_extendqisi2
	.loc 1 2049 92
	cmp	r3, #1
	bne	.L302
	.loc 1 2048 23
	ldr	r3, [sp, #4]
	ldrb	r3, [r3, #2]	@ zero_extendqisi2
	.loc 1 2047 39
	cmp	r3, #1
	beq	.L303
	.loc 1 2048 75
	ldr	r3, [sp, #4]
	ldrb	r3, [r3, #2]	@ zero_extendqisi2
	.loc 1 2048 55
	cmp	r3, #0
	bne	.L302
.L303:
	.loc 1 2049 5 discriminator 1
	ldr	r3, [sp, #4]
	add	r4, r3, #11
	movs	r0, #4
	bl	idmanager_getMyID
	mov	r3, r0
	mov	r1, r3
	mov	r0, r4
	bl	packetfunctions_sameAddress
	mov	r3, r0
	.loc 1 2048 109 discriminator 1
	cmp	r3, #0
	beq	.L302
	.loc 1 2050 6
	ldr	r3, [sp, #4]
	adds	r3, r3, #28
	mov	r0, r3
	bl	idmanager_isMyAddress
	mov	r3, r0
	.loc 1 2049 92
	cmp	r3, #0
	bne	.L304
	.loc 1 2050 57
	ldr	r3, [sp, #4]
	adds	r3, r3, #28
	mov	r0, r3
	bl	packetfunctions_isBroadcastMulticast
	mov	r3, r0
	.loc 1 2050 54
	cmp	r3, #0
	beq	.L302
.L304:
	.loc 1 2049 92 discriminator 2
	movs	r3, #1
	b	.L305
.L302:
	.loc 1 2049 92 is_stmt 0 discriminator 1
	movs	r3, #0
.L305:
	.loc 1 2049 92 discriminator 4
	uxtb	r3, r3
	.loc 1 2051 1 is_stmt 1 discriminator 4
	mov	r0, r3
	add	sp, sp, #8
.LCFI124:
	@ sp needed
	pop	{r4, pc}
.LFE158:
	.size	isValidRxFrame, .-isValidRxFrame
	.section	.text.isValidAck,"ax",%progbits
	.align	1
	.global	isValidAck
	.syntax unified
	.thumb
	.thumb_func
	.type	isValidAck, %function
isValidAck:
.LFB159:
	.loc 1 2069 101
	@ args = 0, pretend = 0, frame = 8
	@ frame_needed = 0, uses_anonymous_args = 0
	push	{r4, lr}
.LCFI125:
	sub	sp, sp, #8
.LCFI126:
	str	r0, [sp, #4]
	str	r1, [sp]
	.loc 1 2070 29
	ldr	r3, [sp, #4]
	ldrb	r3, [r3]	@ zero_extendqisi2
	.loc 1 2073 57
	cmp	r3, #1
	bne	.L308
	.loc 1 2071 26
	ldr	r3, [sp, #4]
	ldrb	r3, [r3, #2]	@ zero_extendqisi2
	.loc 1 2070 45
	cmp	r3, #2
	bne	.L308
	.loc 1 2072 9
	ldr	r3, [sp, #4]
	add	r4, r3, #11
	movs	r0, #4
	bl	idmanager_getMyID
	mov	r3, r0
	mov	r1, r3
	mov	r0, r4
	bl	packetfunctions_sameAddress
	mov	r3, r0
	.loc 1 2071 58
	cmp	r3, #0
	beq	.L308
	.loc 1 2073 9
	ldr	r3, [sp, #4]
	adds	r3, r3, #28
	mov	r0, r3
	bl	idmanager_isMyAddress
	mov	r3, r0
	.loc 1 2072 95
	cmp	r3, #0
	beq	.L308
	.loc 1 2074 9 discriminator 3
	ldr	r3, [sp, #4]
	add	r2, r3, #45
	ldr	r3, [sp]
	adds	r3, r3, #61
	mov	r1, r3
	mov	r0, r2
	bl	packetfunctions_sameAddress
	mov	r3, r0
	.loc 1 2073 57 discriminator 3
	cmp	r3, #0
	beq	.L308
	.loc 1 2073 57 is_stmt 0 discriminator 2
	movs	r3, #1
	b	.L309
.L308:
	.loc 1 2073 57 discriminator 1
	movs	r3, #0
.L309:
	.loc 1 2073 57 discriminator 5
	uxtb	r3, r3
	.loc 1 2075 1 is_stmt 1 discriminator 5
	mov	r0, r3
	add	sp, sp, #8
.LCFI127:
	@ sp needed
	pop	{r4, pc}
.LFE159:
	.size	isValidAck, .-isValidAck
	.section	.text.incrementAsnOffset,"ax",%progbits
	.align	1
	.global	incrementAsnOffset
	.syntax unified
	.thumb
	.thumb_func
	.type	incrementAsnOffset, %function
incrementAsnOffset:
.LFB160:
	.loc 1 2079 43
	@ args = 0, pretend = 0, frame = 8
	@ frame_needed = 0, uses_anonymous_args = 0
	push	{lr}
.LCFI128:
	sub	sp, sp, #12
.LCFI129:
	.loc 1 2083 22
	ldr	r3, .L315
	ldrh	r3, [r3, #3]	@ unaligned
	uxth	r3, r3
	.loc 1 2083 33
	adds	r3, r3, #1
	uxth	r2, r3
	ldr	r3, .L315
	strh	r2, [r3, #3]	@ unaligned
	.loc 1 2084 26
	ldr	r3, .L315
	ldrh	r3, [r3, #3]	@ unaligned
	uxth	r3, r3
	.loc 1 2084 8
	cmp	r3, #0
	bne	.L312
	.loc 1 2085 26
	ldr	r3, .L315
	ldrh	r3, [r3, #1]	@ unaligned
	uxth	r3, r3
	.loc 1 2085 37
	adds	r3, r3, #1
	uxth	r2, r3
	ldr	r3, .L315
	strh	r2, [r3, #1]	@ unaligned
	.loc 1 2086 30
	ldr	r3, .L315
	ldrh	r3, [r3, #1]	@ unaligned
	uxth	r3, r3
	.loc 1 2086 12
	cmp	r3, #0
	bne	.L312
	.loc 1 2087 30
	ldr	r3, .L315
	ldrb	r3, [r3]	@ zero_extendqisi2
	.loc 1 2087 36
	adds	r3, r3, #1
	uxtb	r2, r3
	ldr	r3, .L315
	strb	r2, [r3]
.L312:
	.loc 1 2092 19
	bl	schedule_getFrameLength
	mov	r3, r0
	strh	r3, [sp, #6]	@ movhi
	.loc 1 2093 8
	ldrh	r3, [sp, #6]
	cmp	r3, #0
	bne	.L313
	.loc 1 2094 22
	ldr	r3, .L315
	ldrh	r3, [r3, #6]
	.loc 1 2094 33
	adds	r3, r3, #1
	uxth	r2, r3
	ldr	r3, .L315
	strh	r2, [r3, #6]	@ movhi
	b	.L314
.L313:
	.loc 1 2096 50
	ldr	r3, .L315
	ldrh	r3, [r3, #6]
	.loc 1 2096 62
	adds	r3, r3, #1
	.loc 1 2096 67
	ldrh	r2, [sp, #6]
	sdiv	r1, r3, r2
	mul	r2, r1, r2
	subs	r3, r3, r2
	.loc 1 2096 34
	uxth	r2, r3
	ldr	r3, .L315
	strh	r2, [r3, #6]	@ movhi
.L314:
	.loc 1 2098 45
	ldr	r3, .L315
	ldrb	r3, [r3, #381]	@ zero_extendqisi2
	.loc 1 2098 56
	adds	r3, r3, #1
	.loc 1 2098 61
	rsbs	r2, r3, #0
	and	r3, r3, #15
	and	r2, r2, #15
	it	pl
	rsbpl	r3, r2, #0
	.loc 1 2098 29
	uxtb	r2, r3
	ldr	r3, .L315
	strb	r2, [r3, #381]
	.loc 1 2099 1
	nop
	add	sp, sp, #12
.LCFI130:
	@ sp needed
	ldr	pc, [sp], #4
.L316:
	.align	2
.L315:
	.word	ieee154e_vars
.LFE160:
	.size	incrementAsnOffset, .-incrementAsnOffset
	.section	.text.ieee154e_resetAsn,"ax",%progbits
	.align	1
	.global	ieee154e_resetAsn
	.syntax unified
	.thumb
	.thumb_func
	.type	ieee154e_resetAsn, %function
ieee154e_resetAsn:
.LFB161:
	.loc 1 2101 42
	@ args = 0, pretend = 0, frame = 0
	@ frame_needed = 0, uses_anonymous_args = 0
	@ link register save eliminated.
	.loc 1 2103 30
	ldr	r3, .L318
	movs	r2, #0
	strh	r2, [r3, #6]	@ movhi
	.loc 1 2104 29
	ldr	r3, .L318
	movs	r2, #0
	strb	r2, [r3, #381]
	.loc 1 2106 29
	ldr	r3, .L318
	movs	r2, #0
	strb	r2, [r3]
	.loc 1 2107 34
	ldr	r3, .L318
	movs	r2, #0
	strb	r2, [r3, #1]
	movs	r2, #0
	strb	r2, [r3, #2]
	.loc 1 2108 34
	ldr	r3, .L318
	movs	r2, #0
	strb	r2, [r3, #3]
	movs	r2, #0
	strb	r2, [r3, #4]
	.loc 1 2109 1
	nop
	bx	lr
.L319:
	.align	2
.L318:
	.word	ieee154e_vars
.LFE161:
	.size	ieee154e_resetAsn, .-ieee154e_resetAsn
	.section	.text.ieee154e_getAsn,"ax",%progbits
	.align	1
	.global	ieee154e_getAsn
	.syntax unified
	.thumb
	.thumb_func
	.type	ieee154e_getAsn, %function
ieee154e_getAsn:
.LFB162:
	.loc 1 2112 50
	@ args = 0, pretend = 0, frame = 8
	@ frame_needed = 0, uses_anonymous_args = 0
	@ link register save eliminated.
	sub	sp, sp, #8
.LCFI131:
	str	r0, [sp, #4]
	.loc 1 2113 34
	ldr	r3, .L321
	ldrh	r3, [r3, #3]	@ unaligned
	uxth	r3, r3
	.loc 1 2113 14
	uxtb	r2, r3
	ldr	r3, [sp, #4]
	strb	r2, [r3]
	.loc 1 2114 34
	ldr	r3, .L321
	ldrh	r3, [r3, #3]	@ unaligned
	uxth	r3, r3
	.loc 1 2114 14
	lsrs	r3, r3, #8
	uxth	r2, r3
	.loc 1 2114 10
	ldr	r3, [sp, #4]
	adds	r3, r3, #1
	.loc 1 2114 14
	uxtb	r2, r2
	strb	r2, [r3]
	.loc 1 2115 34
	ldr	r3, .L321
	ldrh	r3, [r3, #1]	@ unaligned
	uxth	r2, r3
	.loc 1 2115 10
	ldr	r3, [sp, #4]
	adds	r3, r3, #2
	.loc 1 2115 14
	uxtb	r2, r2
	strb	r2, [r3]
	.loc 1 2116 34
	ldr	r3, .L321
	ldrh	r3, [r3, #1]	@ unaligned
	uxth	r3, r3
	.loc 1 2116 14
	lsrs	r3, r3, #8
	uxth	r2, r3
	.loc 1 2116 10
	ldr	r3, [sp, #4]
	adds	r3, r3, #3
	.loc 1 2116 14
	uxtb	r2, r2
	strb	r2, [r3]
	.loc 1 2117 10
	ldr	r3, [sp, #4]
	adds	r3, r3, #4
	.loc 1 2117 33
	ldr	r2, .L321
	ldrb	r2, [r2]	@ zero_extendqisi2
	.loc 1 2117 14
	strb	r2, [r3]
	.loc 1 2118 1
	nop
	add	sp, sp, #8
.LCFI132:
	@ sp needed
	bx	lr
.L322:
	.align	2
.L321:
	.word	ieee154e_vars
.LFE162:
	.size	ieee154e_getAsn, .-ieee154e_getAsn
	.section	.text.ieee154e_getTimeCorrection,"ax",%progbits
	.align	1
	.global	ieee154e_getTimeCorrection
	.syntax unified
	.thumb
	.thumb_func
	.type	ieee154e_getTimeCorrection, %function
ieee154e_getTimeCorrection:
.LFB163:
	.loc 1 2120 55
	@ args = 0, pretend = 0, frame = 8
	@ frame_needed = 0, uses_anonymous_args = 0
	@ link register save eliminated.
	sub	sp, sp, #8
.LCFI133:
	.loc 1 2123 15
	ldr	r3, .L325
	ldrh	r3, [r3, #416]	@ movhi
	strh	r3, [sp, #6]	@ movhi
	.loc 1 2124 12
	ldrh	r3, [sp, #6]
	.loc 1 2125 1
	mov	r0, r3
	add	sp, sp, #8
.LCFI134:
	@ sp needed
	bx	lr
.L326:
	.align	2
.L325:
	.word	ieee154e_vars
.LFE163:
	.size	ieee154e_getTimeCorrection, .-ieee154e_getTimeCorrection
	.section	.text.ieee154e_getTicsInfo,"ax",%progbits
	.align	1
	.global	ieee154e_getTicsInfo
	.syntax unified
	.thumb
	.thumb_func
	.type	ieee154e_getTicsInfo, %function
ieee154e_getTicsInfo:
.LFB164:
	.loc 1 2127 72
	@ args = 0, pretend = 0, frame = 8
	@ frame_needed = 0, uses_anonymous_args = 0
	@ link register save eliminated.
	sub	sp, sp, #8
.LCFI135:
	str	r0, [sp, #4]
	str	r1, [sp]
	.loc 1 2128 43
	ldr	r3, .L328
	ldr	r2, [r3, #7]	@ unaligned
	.loc 1 2128 16
	ldr	r3, [sp, #4]
	str	r2, [r3]
	.loc 1 2129 46
	ldr	r3, .L328
	ldr	r2, [r3, #11]	@ unaligned
	.loc 1 2129 19
	ldr	r3, [sp]
	str	r2, [r3]
	.loc 1 2130 1
	nop
	add	sp, sp, #8
.LCFI136:
	@ sp needed
	bx	lr
.L329:
	.align	2
.L328:
	.word	ieee154e_stats
.LFE164:
	.size	ieee154e_getTicsInfo, .-ieee154e_getTicsInfo
	.section	.text.joinPriorityStoreFromEB,"ax",%progbits
	.align	1
	.global	joinPriorityStoreFromEB
	.syntax unified
	.thumb
	.thumb_func
	.type	joinPriorityStoreFromEB, %function
joinPriorityStoreFromEB:
.LFB165:
	.loc 1 2132 54
	@ args = 0, pretend = 0, frame = 8
	@ frame_needed = 0, uses_anonymous_args = 0
	@ link register save eliminated.
	sub	sp, sp, #8
.LCFI137:
	mov	r3, r0
	strb	r3, [sp, #7]
	.loc 1 2133 18
	ldr	r3, .L331
	ldr	r3, [r3, #360]
	.loc 1 2133 49
	ldrb	r2, [sp, #7]
	strb	r2, [r3, #156]
	.loc 1 2134 18
	ldr	r3, .L331
	ldr	r3, [r3, #360]
	.loc 1 2134 56
	movs	r2, #1
	strb	r2, [r3, #159]
	.loc 1 2135 1
	nop
	add	sp, sp, #8
.LCFI138:
	@ sp needed
	bx	lr
.L332:
	.align	2
.L331:
	.word	ieee154e_vars
.LFE165:
	.size	joinPriorityStoreFromEB, .-joinPriorityStoreFromEB
	.section	.text.isValidJoin,"ax",%progbits
	.align	1
	.global	isValidJoin
	.syntax unified
	.thumb
	.thumb_func
	.type	isValidJoin, %function
isValidJoin:
.LFB166:
	.loc 1 2141 77
	@ args = 0, pretend = 0, frame = 16
	@ frame_needed = 0, uses_anonymous_args = 0
	push	{r4, lr}
.LCFI139:
	sub	sp, sp, #16
.LCFI140:
	str	r0, [sp, #4]
	str	r1, [sp]
	.loc 1 2145 49
	ldr	r3, [sp]
	ldrb	r3, [r3, #1]	@ zero_extendqisi2
	.loc 1 2145 5
	uxth	r2, r3
	add	r3, sp, #4
	mov	r1, r2
	mov	r0, r3
	bl	packetfunctions_tossHeader
	.loc 1 2149 11
	movs	r3, #0
	strh	r3, [sp, #14]	@ movhi
	.loc 1 2152 33
	ldr	r3, [sp]
	ldrb	r3, [r3]	@ zero_extendqisi2
	.loc 1 2155 102
	cmp	r3, #1
	bne	.L334
	.loc 1 2153 33
	ldr	r3, [sp]
	ldrb	r3, [r3, #7]	@ zero_extendqisi2
	.loc 1 2152 49
	cmp	r3, #1
	bne	.L334
	.loc 1 2154 33
	ldr	r3, [sp]
	ldrb	r3, [r3, #2]	@ zero_extendqisi2
	.loc 1 2153 57
	cmp	r3, #0
	bne	.L334
	.loc 1 2155 21
	ldr	r3, [sp]
	add	r4, r3, #11
	movs	r0, #4
	bl	idmanager_getMyID
	mov	r3, r0
	mov	r1, r3
	mov	r0, r4
	bl	packetfunctions_sameAddress
	mov	r3, r0
	.loc 1 2154 68
	cmp	r3, #0
	beq	.L334
	.loc 1 2156 21 discriminator 3
	ldr	r3, [sp, #4]
	add	r2, sp, #14
	mov	r1, r2
	mov	r0, r3
	bl	ieee154e_processIEs
	mov	r3, r0
	.loc 1 2155 102 discriminator 3
	cmp	r3, #0
	beq	.L334
	.loc 1 2155 102 is_stmt 0 discriminator 2
	movs	r3, #1
	b	.L335
.L334:
	.loc 1 2155 102 discriminator 1
	movs	r3, #0
.L335:
	.loc 1 2150 8 is_stmt 1
	cmp	r3, #0
	bne	.L336
	.loc 1 2159 16
	movs	r3, #0
	b	.L341
.L336:
	.loc 1 2164 56
	ldr	r3, [sp]
	ldrb	r3, [r3, #1]	@ zero_extendqisi2
	.loc 1 2164 9
	uxth	r2, r3
	add	r3, sp, #4
	mov	r1, r2
	mov	r0, r3
	bl	packetfunctions_reserveHeader
	mov	r3, r0
	.loc 1 2164 8
	cmp	r3, #1
	bne	.L338
	.loc 1 2166 16
	movs	r3, #0
	b	.L341
.L338:
	.loc 1 2170 9
	bl	IEEE802154_security_isConfigured
	mov	r3, r0
	.loc 1 2170 8
	cmp	r3, #0
	beq	.L339
	.loc 1 2171 13
	ldr	r3, [sp, #4]
	mov	r0, r3
	bl	IEEE802154_security_incomingFrame
	mov	r3, r0
	.loc 1 2171 12
	cmp	r3, #0
	bne	.L340
	.loc 1 2172 20
	movs	r3, #1
	b	.L341
.L339:
	.loc 1 2176 43
	ldr	r3, [sp, #4]
	ldrb	r3, [r3, #185]	@ zero_extendqisi2
	.loc 1 2176 9
	uxth	r2, r3
	add	r3, sp, #4
	mov	r1, r2
	mov	r0, r3
	bl	packetfunctions_tossFooter
	.loc 1 2177 16
	movs	r3, #1
	b	.L341
.L340:
	.loc 1 2180 12
	movs	r3, #0
.L341:
	.loc 1 2181 1 discriminator 1
	mov	r0, r3
	add	sp, sp, #16
.LCFI141:
	@ sp needed
	pop	{r4, pc}
.LFE166:
	.size	isValidJoin, .-isValidJoin
	.section	.text.isValidEbFormat,"ax",%progbits
	.align	1
	.global	isValidEbFormat
	.syntax unified
	.thumb
	.thumb_func
	.type	isValidEbFormat, %function
isValidEbFormat:
.LFB167:
	.loc 1 2183 62
	@ args = 0, pretend = 0, frame = 48
	@ frame_needed = 0, uses_anonymous_args = 0
	push	{lr}
.LCFI142:
	sub	sp, sp, #60
.LCFI143:
	str	r0, [sp, #12]
	str	r1, [sp, #8]
	.loc 1 2207 26
	movs	r3, #0
	strb	r3, [sp, #55]
	.loc 1 2208 26
	movs	r3, #0
	strb	r3, [sp, #54]
	.loc 1 2209 23
	movs	r3, #0
	strb	r3, [sp, #53]
	.loc 1 2210 32
	movs	r3, #0
	strb	r3, [sp, #52]
	.loc 1 2212 9
	movs	r3, #0
	strb	r3, [sp, #51]
	.loc 1 2213 19
	movs	r3, #0
	strb	r3, [sp, #50]
	.loc 1 2215 11
	b	.L343
.L347:
	.loc 1 2217 37
	ldr	r3, [sp, #12]
	ldr	r2, [r3, #4]
	.loc 1 2217 48
	ldrb	r3, [sp, #51]	@ zero_extendqisi2
	add	r3, r3, r2
	.loc 1 2217 19
	ldrb	r3, [r3]	@ zero_extendqisi2
	.loc 1 2217 17
	strh	r3, [sp, #44]	@ movhi
	.loc 1 2218 39
	ldr	r3, [sp, #12]
	ldr	r2, [r3, #4]
	.loc 1 2218 56
	ldrb	r3, [sp, #51]	@ zero_extendqisi2
	adds	r3, r3, #1
	add	r3, r3, r2
	.loc 1 2218 21
	ldrb	r3, [r3]	@ zero_extendqisi2
	.loc 1 2218 62
	lsls	r3, r3, #8
	.loc 1 2218 17
	sxth	r2, r3
	ldrsh	r3, [sp, #44]
	orrs	r3, r3, r2
	sxth	r3, r3
	strh	r3, [sp, #44]	@ movhi
	.loc 1 2219 13
	ldrb	r3, [sp, #51]
	adds	r3, r3, #2
	strb	r3, [sp, #51]
	.loc 1 2221 15
	ldrh	r3, [sp, #44]	@ movhi
	strb	r3, [sp, #48]
	.loc 1 2224 70
	ldrh	r3, [sp, #44]
	asrs	r3, r3, #11
	and	r3, r3, #15
	.loc 1 2223 12
	cmp	r3, #1
	bne	.L344
	.loc 1 2226 56
	ldrsh	r3, [sp, #44]
	.loc 1 2225 45
	cmp	r3, #0
	blt	.L345
.L344:
	.loc 1 2229 17
	ldrb	r2, [sp, #51]
	ldrb	r3, [sp, #48]
	add	r3, r3, r2
	strb	r3, [sp, #51]
	b	.L343
.L345:
	.loc 1 2232 27
	movs	r3, #1
	strb	r3, [sp, #50]
	.loc 1 2233 36
	ldrb	r3, [sp, #51]
	strb	r3, [sp, #49]
	.loc 1 2234 13
	b	.L346
.L343:
	.loc 1 2215 16
	ldrb	r3, [sp, #51]	@ zero_extendqisi2
	.loc 1 2215 21
	ldr	r2, [sp, #12]
	ldrsh	r2, [r2, #8]
	.loc 1 2215 16
	cmp	r3, r2
	blt	.L347
.L346:
	.loc 1 2238 8
	ldrb	r3, [sp, #50]	@ zero_extendqisi2
	cmp	r3, #0
	bne	.L350
	.loc 1 2240 16
	movs	r3, #0
	b	.L365
.L363:
	.loc 1 2251 37
	ldr	r3, [sp, #12]
	ldr	r2, [r3, #4]
	.loc 1 2251 48
	ldrb	r3, [sp, #51]	@ zero_extendqisi2
	add	r3, r3, r2
	.loc 1 2251 19
	ldrb	r3, [r3]	@ zero_extendqisi2
	.loc 1 2251 17
	strh	r3, [sp, #44]	@ movhi
	.loc 1 2252 39
	ldr	r3, [sp, #12]
	ldr	r2, [r3, #4]
	.loc 1 2252 56
	ldrb	r3, [sp, #51]	@ zero_extendqisi2
	adds	r3, r3, #1
	add	r3, r3, r2
	.loc 1 2252 21
	ldrb	r3, [r3]	@ zero_extendqisi2
	.loc 1 2252 62
	lsls	r3, r3, #8
	.loc 1 2252 17
	sxth	r2, r3
	ldrsh	r3, [sp, #44]
	orrs	r3, r3, r2
	sxth	r3, r3
	strh	r3, [sp, #44]	@ movhi
	.loc 1 2253 13
	ldrb	r3, [sp, #51]
	adds	r3, r3, #2
	strb	r3, [sp, #51]
	.loc 1 2255 61
	ldrh	r3, [sp, #44]
	lsrs	r3, r3, #15
	uxth	r3, r3
	.loc 1 2255 17
	strb	r3, [sp, #43]
	.loc 1 2256 12
	ldrb	r3, [sp, #43]	@ zero_extendqisi2
	cmp	r3, #1
	bne	.L351
	.loc 1 2258 74
	ldrh	r3, [sp, #44]
	asrs	r3, r3, #11
	uxtb	r3, r3
	.loc 1 2258 19
	and	r3, r3, #15
	strb	r3, [sp, #42]
	.loc 1 2259 20
	ldrh	r3, [sp, #44]	@ movhi
	strb	r3, [sp, #47]
	.loc 1 2260 13
	ldrb	r3, [sp, #42]	@ zero_extendqisi2
	cmp	r3, #9
	bne	.L366
	.loc 1 2262 75
	ldr	r3, [sp, #12]
	ldr	r2, [r3, #4]
	.loc 1 2262 59
	ldrb	r3, [sp, #51]	@ zero_extendqisi2
	add	r3, r3, r2
	.loc 1 2262 21
	ldrb	r3, [r3]	@ zero_extendqisi2
	mov	r0, r3
	bl	channelhoppingTemplateIDStoreFromEB
	.loc 1 2263 42
	movs	r3, #1
	strb	r3, [sp, #55]
	.loc 1 2264 21
	b	.L354
.L351:
	.loc 1 2271 75
	ldrh	r3, [sp, #44]
	asrs	r3, r3, #8
	uxtb	r3, r3
	.loc 1 2271 19
	and	r3, r3, #127
	strb	r3, [sp, #42]
	.loc 1 2272 20
	ldrh	r3, [sp, #44]	@ movhi
	strb	r3, [sp, #47]
	.loc 1 2273 13
	ldrb	r3, [sp, #42]	@ zero_extendqisi2
	cmp	r3, #28
	beq	.L355
	cmp	r3, #28
	bgt	.L367
	cmp	r3, #26
	beq	.L357
	cmp	r3, #27
	beq	.L358
	.loc 1 2318 21
	b	.L367
.L357:
	.loc 1 2275 52
	ldr	r3, [sp, #12]
	ldr	r2, [r3, #4]
	.loc 1 2275 21
	ldrb	r3, [sp, #51]	@ zero_extendqisi2
	add	r3, r3, r2
	mov	r0, r3
	bl	asnStoreFromEB
	.loc 1 2276 63
	ldr	r3, [sp, #12]
	ldr	r2, [r3, #4]
	.loc 1 2276 80
	ldrb	r3, [sp, #51]	@ zero_extendqisi2
	adds	r3, r3, #5
	add	r3, r3, r2
	.loc 1 2276 21
	ldrb	r3, [r3]	@ zero_extendqisi2
	mov	r0, r3
	bl	joinPriorityStoreFromEB
	.loc 1 2277 39
	movs	r3, #1
	strb	r3, [sp, #53]
	.loc 1 2278 21
	b	.L354
.L355:
	.loc 1 2280 69
	ldr	r3, [sp, #12]
	ldr	r2, [r3, #4]
	.loc 1 2280 80
	ldrb	r3, [sp, #51]	@ zero_extendqisi2
	add	r3, r3, r2
	.loc 1 2280 21
	ldrb	r3, [r3]	@ zero_extendqisi2
	mov	r0, r3
	bl	timeslotTemplateIDStoreFromEB
	.loc 1 2281 42
	movs	r3, #1
	strb	r3, [sp, #54]
	.loc 1 2282 21
	b	.L354
.L358:
	.loc 1 2284 63
	ldr	r3, [sp, #12]
	ldr	r2, [r3, #4]
	.loc 1 2284 74
	ldrb	r3, [sp, #51]	@ zero_extendqisi2
	add	r3, r3, r2
	.loc 1 2284 21
	ldrb	r3, [r3]	@ zero_extendqisi2
	mov	r0, r3
	bl	schedule_setFrameNumber
	.loc 1 2285 63
	ldr	r3, [sp, #12]
	ldr	r2, [r3, #4]
	.loc 1 2285 80
	ldrb	r3, [sp, #51]	@ zero_extendqisi2
	adds	r3, r3, #1
	add	r3, r3, r2
	.loc 1 2285 21
	ldrb	r3, [r3]	@ zero_extendqisi2
	mov	r0, r3
	bl	schedule_setFrameHandle
	.loc 1 2286 38
	bl	schedule_getFrameLength
	mov	r3, r0
	.loc 1 2286 36
	strb	r3, [sp, #41]
	.loc 1 2287 24
	ldrb	r3, [sp, #41]	@ zero_extendqisi2
	cmp	r3, #0
	bne	.L359
	.loc 1 2288 53
	ldr	r3, [sp, #12]
	ldr	r2, [r3, #4]
	.loc 1 2288 69
	ldrb	r3, [sp, #51]	@ zero_extendqisi2
	adds	r3, r3, #2
	.loc 1 2288 37
	add	r3, r3, r2
	.loc 1 2288 35
	ldrb	r3, [r3]	@ zero_extendqisi2
	.loc 1 2288 33
	strh	r3, [sp, #44]	@ movhi
	.loc 1 2289 54
	ldr	r3, [sp, #12]
	ldr	r2, [r3, #4]
	.loc 1 2289 70
	ldrb	r3, [sp, #51]	@ zero_extendqisi2
	adds	r3, r3, #3
	.loc 1 2289 38
	add	r3, r3, r2
	.loc 1 2289 36
	ldrb	r3, [r3]	@ zero_extendqisi2
	.loc 1 2289 76
	lsls	r3, r3, #8
	.loc 1 2289 33
	sxth	r2, r3
	ldrsh	r3, [sp, #44]
	orrs	r3, r3, r2
	sxth	r3, r3
	strh	r3, [sp, #44]	@ movhi
	.loc 1 2290 25
	ldrh	r3, [sp, #44]
	mov	r0, r3
	bl	schedule_setFrameLength
	.loc 1 2291 54
	ldr	r3, [sp, #12]
	ldr	r2, [r3, #4]
	.loc 1 2291 70
	ldrb	r3, [sp, #51]	@ zero_extendqisi2
	adds	r3, r3, #4
	.loc 1 2291 38
	add	r3, r3, r2
	.loc 1 2291 34
	ldrb	r3, [r3]
	strb	r3, [sp, #40]
	.loc 1 2294 25
	add	r3, sp, #16
	movs	r2, #17
	movs	r1, #0
	mov	r0, r3
	bl	memset
	.loc 1 2295 44
	movs	r3, #6
	strb	r3, [sp, #16]
	.loc 1 2297 32
	movs	r3, #0
	strb	r3, [sp, #46]
	.loc 1 2297 25
	b	.L360
.L361:
	.loc 1 2298 60 discriminator 3
	ldr	r3, [sp, #12]
	ldr	r1, [r3, #4]
	.loc 1 2298 80 discriminator 3
	ldrb	r0, [sp, #51]	@ zero_extendqisi2
	.loc 1 2298 84 discriminator 3
	ldrb	r2, [sp, #46]	@ zero_extendqisi2
	mov	r3, r2
	lsls	r3, r3, #2
	add	r3, r3, r2
	.loc 1 2298 80 discriminator 3
	add	r3, r3, r0
	adds	r3, r3, #5
	.loc 1 2298 44 discriminator 3
	add	r3, r3, r1
	.loc 1 2298 42 discriminator 3
	ldrb	r3, [r3]	@ zero_extendqisi2
	.loc 1 2298 40 discriminator 3
	strh	r3, [sp, #38]	@ movhi
	.loc 1 2299 61 discriminator 3
	ldr	r3, [sp, #12]
	ldr	r1, [r3, #4]
	.loc 1 2299 81 discriminator 3
	ldrb	r0, [sp, #51]	@ zero_extendqisi2
	.loc 1 2299 85 discriminator 3
	ldrb	r2, [sp, #46]	@ zero_extendqisi2
	mov	r3, r2
	lsls	r3, r3, #2
	add	r3, r3, r2
	.loc 1 2299 81 discriminator 3
	add	r3, r3, r0
	.loc 1 2299 89 discriminator 3
	adds	r3, r3, #6
	.loc 1 2299 45 discriminator 3
	add	r3, r3, r1
	.loc 1 2299 43 discriminator 3
	ldrb	r3, [r3]	@ zero_extendqisi2
	.loc 1 2299 95 discriminator 3
	lsls	r3, r3, #8
	.loc 1 2299 40 discriminator 3
	sxth	r2, r3
	ldrsh	r3, [sp, #38]
	orrs	r3, r3, r2
	sxth	r3, r3
	strh	r3, [sp, #38]	@ movhi
	.loc 1 2301 63 discriminator 3
	ldr	r3, [sp, #12]
	ldr	r1, [r3, #4]
	.loc 1 2301 83 discriminator 3
	ldrb	r0, [sp, #51]	@ zero_extendqisi2
	.loc 1 2301 87 discriminator 3
	ldrb	r2, [sp, #46]	@ zero_extendqisi2
	mov	r3, r2
	lsls	r3, r3, #2
	add	r3, r3, r2
	.loc 1 2301 83 discriminator 3
	add	r3, r3, r0
	.loc 1 2301 91 discriminator 3
	adds	r3, r3, #7
	.loc 1 2301 47 discriminator 3
	add	r3, r3, r1
	.loc 1 2301 45 discriminator 3
	ldrb	r3, [r3]	@ zero_extendqisi2
	.loc 1 2301 43 discriminator 3
	strh	r3, [sp, #36]	@ movhi
	.loc 1 2302 64 discriminator 3
	ldr	r3, [sp, #12]
	ldr	r1, [r3, #4]
	.loc 1 2302 84 discriminator 3
	ldrb	r0, [sp, #51]	@ zero_extendqisi2
	.loc 1 2302 88 discriminator 3
	ldrb	r2, [sp, #46]	@ zero_extendqisi2
	mov	r3, r2
	lsls	r3, r3, #2
	add	r3, r3, r2
	.loc 1 2302 84 discriminator 3
	add	r3, r3, r0
	.loc 1 2302 92 discriminator 3
	adds	r3, r3, #8
	.loc 1 2302 48 discriminator 3
	add	r3, r3, r1
	.loc 1 2302 46 discriminator 3
	ldrb	r3, [r3]	@ zero_extendqisi2
	.loc 1 2302 98 discriminator 3
	lsls	r3, r3, #8
	.loc 1 2302 43 discriminator 3
	sxth	r2, r3
	ldrsh	r3, [sp, #36]
	orrs	r3, r3, r2
	sxth	r3, r3
	strh	r3, [sp, #36]	@ movhi
	.loc 1 2304 29 discriminator 3
	ldrh	r3, [sp, #36]	@ movhi
	uxtb	r3, r3
	ldrh	r0, [sp, #38]
	add	r2, sp, #16
	str	r2, [sp, #4]
	str	r3, [sp]
	movs	r3, #0
	movs	r2, #1
	movs	r1, #3
	bl	schedule_addActiveSlot
	.loc 1 2297 52 discriminator 3
	ldrb	r3, [sp, #46]	@ zero_extendqisi2
	adds	r3, r3, #1
	strb	r3, [sp, #46]
.L360:
	.loc 1 2297 39 discriminator 1
	ldrb	r2, [sp, #46]	@ zero_extendqisi2
	ldrb	r3, [sp, #40]	@ zero_extendqisi2
	cmp	r2, r3
	bcc	.L361
.L359:
	.loc 1 2314 48
	movs	r3, #1
	strb	r3, [sp, #52]
	.loc 1 2315 21
	b	.L354
.L366:
	.loc 1 2267 21
	nop
	b	.L354
.L367:
	.loc 1 2318 21
	nop
.L354:
	.loc 1 2321 13
	ldrb	r2, [sp, #51]
	ldrb	r3, [sp, #47]
	add	r3, r3, r2
	strb	r3, [sp, #51]
.L350:
	.loc 1 2244 17
	ldrb	r2, [sp, #51]	@ zero_extendqisi2
	.loc 1 2244 42
	ldrb	r1, [sp, #49]	@ zero_extendqisi2
	ldrb	r3, [sp, #48]	@ zero_extendqisi2
	add	r3, r3, r1
	.loc 1 2244 50
	cmp	r2, r3
	bge	.L362
	.loc 1 2244 50 is_stmt 0 discriminator 1
	ldrb	r3, [sp, #55]	@ zero_extendqisi2
	cmp	r3, #0
	beq	.L363
	.loc 1 2246 51 is_stmt 1
	ldrb	r3, [sp, #54]	@ zero_extendqisi2
	cmp	r3, #0
	beq	.L363
	.loc 1 2246 84 discriminator 1
	ldrb	r3, [sp, #53]	@ zero_extendqisi2
	cmp	r3, #0
	beq	.L363
	.loc 1 2247 48
	ldrb	r3, [sp, #52]	@ zero_extendqisi2
	cmp	r3, #0
	beq	.L363
.L362:
	.loc 1 2324 8
	ldrb	r3, [sp, #55]	@ zero_extendqisi2
	cmp	r3, #0
	beq	.L364
	.loc 1 2324 30 discriminator 1
	ldrb	r3, [sp, #54]	@ zero_extendqisi2
	cmp	r3, #0
	beq	.L364
	.loc 1 2324 54 discriminator 2
	ldrb	r3, [sp, #53]	@ zero_extendqisi2
	cmp	r3, #0
	beq	.L364
	.loc 1 2324 75 discriminator 3
	ldrb	r3, [sp, #52]	@ zero_extendqisi2
	cmp	r3, #0
	beq	.L364
	.loc 1 2325 21
	ldr	r3, [sp, #12]
	ldrsh	r3, [r3, #8]
	uxth	r2, r3
	.loc 1 2325 16
	ldr	r3, [sp, #8]
	strh	r2, [r3]	@ movhi
	.loc 1 2326 16
	movs	r3, #1
	b	.L365
.L364:
	.loc 1 2328 16
	movs	r3, #0
.L365:
	.loc 1 2330 1 discriminator 1
	mov	r0, r3
	add	sp, sp, #60
.LCFI144:
	@ sp needed
	ldr	pc, [sp], #4
.LFE167:
	.size	isValidEbFormat, .-isValidEbFormat
	.section	.text.asnStoreFromEB,"ax",%progbits
	.align	1
	.global	asnStoreFromEB
	.syntax unified
	.thumb
	.thumb_func
	.type	asnStoreFromEB, %function
asnStoreFromEB:
.LFB168:
	.loc 1 2332 47
	@ args = 0, pretend = 0, frame = 8
	@ frame_needed = 0, uses_anonymous_args = 0
	@ link register save eliminated.
	sub	sp, sp, #8
.LCFI145:
	str	r0, [sp, #4]
	.loc 1 2335 39
	ldr	r3, [sp, #4]
	ldrb	r3, [r3]	@ zero_extendqisi2
	uxth	r2, r3
	.loc 1 2335 54
	ldr	r3, [sp, #4]
	adds	r3, r3, #1
	ldrb	r3, [r3]	@ zero_extendqisi2
	.loc 1 2335 43
	uxth	r3, r3
	lsls	r3, r3, #8
	uxth	r3, r3
	add	r3, r3, r2
	uxth	r2, r3
	.loc 1 2335 34
	ldr	r3, .L369
	strh	r2, [r3, #3]	@ unaligned
	.loc 1 2336 39
	ldr	r3, [sp, #4]
	adds	r3, r3, #2
	ldrb	r3, [r3]	@ zero_extendqisi2
	uxth	r2, r3
	.loc 1 2336 54
	ldr	r3, [sp, #4]
	adds	r3, r3, #3
	ldrb	r3, [r3]	@ zero_extendqisi2
	.loc 1 2336 43
	uxth	r3, r3
	lsls	r3, r3, #8
	uxth	r3, r3
	add	r3, r3, r2
	uxth	r2, r3
	.loc 1 2336 34
	ldr	r3, .L369
	strh	r2, [r3, #1]	@ unaligned
	.loc 1 2337 29
	ldr	r3, [sp, #4]
	ldrb	r2, [r3, #4]	@ zero_extendqisi2
	ldr	r3, .L369
	strb	r2, [r3]
	.loc 1 2338 1
	nop
	add	sp, sp, #8
.LCFI146:
	@ sp needed
	bx	lr
.L370:
	.align	2
.L369:
	.word	ieee154e_vars
.LFE168:
	.size	asnStoreFromEB, .-asnStoreFromEB
	.section	.text.ieee154e_syncSlotOffset,"ax",%progbits
	.align	1
	.global	ieee154e_syncSlotOffset
	.syntax unified
	.thumb
	.thumb_func
	.type	ieee154e_syncSlotOffset, %function
ieee154e_syncSlotOffset:
.LFB169:
	.loc 1 2340 48
	@ args = 0, pretend = 0, frame = 8
	@ frame_needed = 0, uses_anonymous_args = 0
	push	{lr}
.LCFI147:
	sub	sp, sp, #12
.LCFI148:
	.loc 1 2345 19
	bl	schedule_getFrameLength
	mov	r3, r0
	strh	r3, [sp, #4]	@ movhi
	.loc 1 2348 35
	ldr	r3, .L377
	ldrb	r3, [r3]	@ zero_extendqisi2
	.loc 1 2348 16
	str	r3, [sp]
	.loc 1 2349 29
	ldrh	r2, [sp, #4]
	.loc 1 2349 16
	ldr	r3, [sp]
	udiv	r1, r3, r2
	mul	r2, r1, r2
	subs	r3, r3, r2
	str	r3, [sp]
	.loc 1 2350 16
	ldr	r3, [sp]
	lsls	r3, r3, #16
	str	r3, [sp]
	.loc 1 2351 48
	ldr	r3, .L377
	ldrh	r3, [r3, #1]	@ unaligned
	uxth	r3, r3
	mov	r2, r3
	.loc 1 2351 16
	ldr	r3, [sp]
	add	r3, r3, r2
	str	r3, [sp]
	.loc 1 2352 29
	ldrh	r2, [sp, #4]
	.loc 1 2352 16
	ldr	r3, [sp]
	udiv	r1, r3, r2
	mul	r2, r1, r2
	subs	r3, r3, r2
	str	r3, [sp]
	.loc 1 2353 16
	ldr	r3, [sp]
	lsls	r3, r3, #16
	str	r3, [sp]
	.loc 1 2354 48
	ldr	r3, .L377
	ldrh	r3, [r3, #3]	@ unaligned
	uxth	r3, r3
	mov	r2, r3
	.loc 1 2354 16
	ldr	r3, [sp]
	add	r3, r3, r2
	str	r3, [sp]
	.loc 1 2355 29
	ldrh	r2, [sp, #4]
	.loc 1 2355 16
	ldr	r3, [sp]
	udiv	r1, r3, r2
	mul	r2, r1, r2
	subs	r3, r3, r2
	str	r3, [sp]
	.loc 1 2357 32
	ldr	r3, [sp]
	uxth	r2, r3
	.loc 1 2357 30
	ldr	r3, .L377
	strh	r2, [r3, #6]	@ movhi
	.loc 1 2359 5
	ldr	r3, .L377
	ldrh	r3, [r3, #6]
	mov	r0, r3
	bl	schedule_syncSlotOffset
	.loc 1 2360 42
	bl	schedule_getNextActiveSlotOffset
	mov	r3, r0
	mov	r2, r3
	.loc 1 2360 40
	ldr	r3, .L377
	strh	r2, [r3, #8]	@ movhi
	.loc 1 2365 12
	movs	r3, #0
	strb	r3, [sp, #7]
	.loc 1 2365 5
	b	.L372
.L375:
	.loc 1 2366 27
	ldr	r3, .L377
	ldrb	r3, [r3, #380]	@ zero_extendqisi2
	.loc 1 2366 33
	subs	r3, r3, #11
	.loc 1 2366 66
	ldrb	r2, [sp, #7]	@ zero_extendqisi2
	ldr	r1, .L377
	add	r2, r2, r1
	ldrb	r2, [r2, #384]	@ zero_extendqisi2
	.loc 1 2366 12
	cmp	r3, r2
	beq	.L376
	.loc 1 2365 36 discriminator 2
	ldrb	r3, [sp, #7]	@ zero_extendqisi2
	adds	r3, r3, #1
	strb	r3, [sp, #7]
.L372:
	.loc 1 2365 19 discriminator 1
	ldrb	r3, [sp, #7]	@ zero_extendqisi2
	cmp	r3, #15
	bls	.L375
	b	.L374
.L376:
	.loc 1 2367 13
	nop
.L374:
	.loc 1 2370 35
	bl	schedule_getChannelOffset
	mov	r3, r0
	mov	r2, r3
	.loc 1 2370 33
	ldrb	r3, [sp, #7]
	subs	r3, r3, r2
	uxtb	r2, r3
	.loc 1 2370 29
	ldr	r3, .L377
	strb	r2, [r3, #381]
	.loc 1 2371 1
	nop
	add	sp, sp, #12
.LCFI149:
	@ sp needed
	ldr	pc, [sp], #4
.L378:
	.align	2
.L377:
	.word	ieee154e_vars
.LFE169:
	.size	ieee154e_syncSlotOffset, .-ieee154e_syncSlotOffset
	.section	.text.ieee154e_getSlotDuration,"ax",%progbits
	.align	1
	.global	ieee154e_getSlotDuration
	.syntax unified
	.thumb
	.thumb_func
	.type	ieee154e_getSlotDuration, %function
ieee154e_getSlotDuration:
.LFB170:
	.loc 1 2373 41
	@ args = 0, pretend = 0, frame = 0
	@ frame_needed = 0, uses_anonymous_args = 0
	@ link register save eliminated.
	.loc 1 2374 25
	ldr	r3, .L381
	ldrh	r3, [r3, #418]
	.loc 1 2375 1
	mov	r0, r3
	bx	lr
.L382:
	.align	2
.L381:
	.word	ieee154e_vars
.LFE170:
	.size	ieee154e_getSlotDuration, .-ieee154e_getSlotDuration
	.section	.text.timeslotTemplateIDStoreFromEB,"ax",%progbits
	.align	1
	.global	timeslotTemplateIDStoreFromEB
	.syntax unified
	.thumb
	.thumb_func
	.type	timeslotTemplateIDStoreFromEB, %function
timeslotTemplateIDStoreFromEB:
.LFB171:
	.loc 1 2378 60
	@ args = 0, pretend = 0, frame = 8
	@ frame_needed = 0, uses_anonymous_args = 0
	@ link register save eliminated.
	sub	sp, sp, #8
.LCFI150:
	mov	r3, r0
	strb	r3, [sp, #7]
	.loc 1 2379 32
	ldr	r2, .L384
	ldrb	r3, [sp, #7]
	strb	r3, [r2, #400]
	.loc 1 2380 1
	nop
	add	sp, sp, #8
.LCFI151:
	@ sp needed
	bx	lr
.L385:
	.align	2
.L384:
	.word	ieee154e_vars
.LFE171:
	.size	timeslotTemplateIDStoreFromEB, .-timeslotTemplateIDStoreFromEB
	.section	.text.channelhoppingTemplateIDStoreFromEB,"ax",%progbits
	.align	1
	.global	channelhoppingTemplateIDStoreFromEB
	.syntax unified
	.thumb
	.thumb_func
	.type	channelhoppingTemplateIDStoreFromEB, %function
channelhoppingTemplateIDStoreFromEB:
.LFB172:
	.loc 1 2383 66
	@ args = 0, pretend = 0, frame = 8
	@ frame_needed = 0, uses_anonymous_args = 0
	@ link register save eliminated.
	sub	sp, sp, #8
.LCFI152:
	mov	r3, r0
	strb	r3, [sp, #7]
	.loc 1 2384 32
	ldr	r2, .L387
	ldrb	r3, [sp, #7]
	strb	r3, [r2, #401]
	.loc 1 2385 1
	nop
	add	sp, sp, #8
.LCFI153:
	@ sp needed
	bx	lr
.L388:
	.align	2
.L387:
	.word	ieee154e_vars
.LFE172:
	.size	channelhoppingTemplateIDStoreFromEB, .-channelhoppingTemplateIDStoreFromEB
	.section	.text.synchronizePacket,"ax",%progbits
	.align	1
	.global	synchronizePacket
	.syntax unified
	.thumb
	.thumb_func
	.type	synchronizePacket, %function
synchronizePacket:
.LFB173:
	.loc 1 2388 55
	@ args = 0, pretend = 0, frame = 24
	@ frame_needed = 0, uses_anonymous_args = 0
	push	{lr}
.LCFI154:
	sub	sp, sp, #36
.LCFI155:
	str	r0, [sp, #12]
	.loc 1 2395 20
	bl	opentimers_getValue
	mov	r2, r0
	.loc 1 2395 57
	ldr	r3, .L395
	ldr	r3, [r3, #424]
	.loc 1 2395 18
	subs	r3, r2, r3
	str	r3, [sp, #24]
	.loc 1 2396 34
	ldr	r3, .L395
	ldrh	r3, [r3, #418]
	.loc 1 2396 19
	str	r3, [sp, #20]
	.loc 1 2399 46
	ldr	r3, [sp, #12]
	.loc 1 2399 20
	subs	r3, r3, #173
	str	r3, [sp, #16]
	.loc 1 2407 8
	ldr	r2, [sp, #24]
	ldr	r3, [sp, #12]
	cmp	r2, r3
	bcs	.L390
	.loc 1 2408 19
	ldr	r3, [sp, #16]
	str	r3, [sp, #28]
	b	.L391
.L390:
	.loc 1 2410 40
	ldr	r2, [sp, #20]
	.loc 1 2410 78
	ldr	r3, [sp, #16]
	add	r3, r3, r2
	.loc 1 2410 19
	str	r3, [sp, #28]
.L391:
	.loc 1 2415 9
	ldr	r2, [sp, #28]
	.loc 1 2415 45
	ldr	r3, [sp, #24]
	.loc 1 2415 43
	subs	r3, r2, r3
	.loc 1 2415 8
	cmp	r3, #4
	bgt	.L392
	.loc 1 2417 19
	ldr	r3, [sp, #28]
	add	r3, r3, #656
	str	r3, [sp, #28]
	.loc 1 2418 9
	bl	incrementAsnOffset
.L392:
	.loc 1 2422 5
	ldr	r3, .L395
	ldrb	r0, [r3, #420]	@ zero_extendqisi2
	ldr	r3, .L395
	ldr	r2, [r3, #424]
	ldr	r3, .L395+4
	str	r3, [sp]
	movs	r3, #1
	ldr	r1, [sp, #28]
	bl	opentimers_scheduleAbsolute
	.loc 1 2429 32
	ldr	r3, [sp, #28]
	uxth	r2, r3
	ldr	r3, .L395
	strh	r2, [r3, #418]	@ movhi
	.loc 1 2435 33
	ldr	r3, .L395
	movw	r2, #1750
	str	r2, [r3, #12]
	.loc 1 2439 26
	ldr	r3, .L395
	ldrb	r3, [r3, #16]	@ zero_extendqisi2
	.loc 1 2438 8
	cmp	r3, #1
	bne	.L393
	.loc 1 2439 42
	ldr	r3, [sp, #16]
	cmn	r3, #5
	blt	.L394
	.loc 1 2441 64
	ldr	r3, [sp, #16]
	cmp	r3, #5
	ble	.L393
.L394:
	.loc 1 2444 9
	ldr	r3, [sp, #16]
	uxth	r3, r3
	movs	r2, #0
	str	r2, [sp]
	movs	r2, #49
	movs	r1, #9
	movs	r0, #4
	bl	openserial_printLog
.L393:
	.loc 1 2450 19
	ldr	r3, .L395+8
	ldrb	r3, [r3]	@ zero_extendqisi2
	.loc 1 2450 30
	adds	r3, r3, #1
	uxtb	r2, r3
	ldr	r3, .L395+8
	strb	r2, [r3]
	.loc 1 2451 5
	ldr	r0, [sp, #16]
	bl	updateStats
	.loc 1 2457 1
	nop
	add	sp, sp, #36
.LCFI156:
	@ sp needed
	ldr	pc, [sp], #4
.L396:
	.align	2
.L395:
	.word	ieee154e_vars
	.word	isr_ieee154e_newSlot
	.word	ieee154e_stats
.LFE173:
	.size	synchronizePacket, .-synchronizePacket
	.section	.text.synchronizeAck,"ax",%progbits
	.align	1
	.global	synchronizeAck
	.syntax unified
	.thumb
	.thumb_func
	.type	synchronizeAck, %function
synchronizeAck:
.LFB174:
	.loc 1 2459 59
	@ args = 0, pretend = 0, frame = 16
	@ frame_needed = 0, uses_anonymous_args = 0
	push	{lr}
.LCFI157:
	sub	sp, sp, #28
.LCFI158:
	str	r0, [sp, #12]
	.loc 1 2464 34
	ldr	r3, .L400
	ldrh	r3, [r3, #418]
	.loc 1 2464 19
	str	r3, [sp, #20]
	.loc 1 2465 36
	ldr	r2, [sp, #20]
	.loc 1 2465 74
	ldr	r3, [sp, #12]
	add	r3, r3, r2
	.loc 1 2465 15
	str	r3, [sp, #16]
	.loc 1 2468 5
	ldr	r3, .L400
	ldrb	r0, [r3, #420]	@ zero_extendqisi2
	ldr	r3, .L400
	ldr	r2, [r3, #424]
	ldr	r3, .L400+4
	str	r3, [sp]
	movs	r3, #1
	ldr	r1, [sp, #16]
	bl	opentimers_scheduleAbsolute
	.loc 1 2475 32
	ldr	r3, [sp, #16]
	uxth	r2, r3
	ldr	r3, .L400
	strh	r2, [r3, #418]	@ movhi
	.loc 1 2478 33
	ldr	r3, .L400
	movw	r2, #1750
	str	r2, [r3, #12]
	.loc 1 2485 22
	ldr	r3, .L400
	ldrb	r3, [r3, #16]	@ zero_extendqisi2
	.loc 1 2485 8
	cmp	r3, #1
	bne	.L398
	.loc 1 2485 38 discriminator 1
	ldr	r3, [sp, #12]
	cmn	r3, #5
	blt	.L399
	.loc 1 2486 56
	ldr	r3, [sp, #12]
	cmp	r3, #5
	ble	.L398
.L399:
	.loc 1 2488 9
	ldr	r3, [sp, #12]
	uxth	r3, r3
	movs	r2, #1
	str	r2, [sp]
	movs	r2, #49
	movs	r1, #9
	movs	r0, #4
	bl	openserial_printLog
.L398:
	.loc 1 2494 19
	ldr	r3, .L400+8
	ldrb	r3, [r3, #1]	@ zero_extendqisi2
	.loc 1 2494 30
	adds	r3, r3, #1
	uxtb	r2, r3
	ldr	r3, .L400+8
	strb	r2, [r3, #1]
	.loc 1 2495 5
	ldr	r0, [sp, #12]
	bl	updateStats
	.loc 1 2501 1
	nop
	add	sp, sp, #28
.LCFI159:
	@ sp needed
	ldr	pc, [sp], #4
.L401:
	.align	2
.L400:
	.word	ieee154e_vars
	.word	isr_ieee154e_newSlot
	.word	ieee154e_stats
.LFE174:
	.size	synchronizeAck, .-synchronizeAck
	.section	.text.changeIsSync,"ax",%progbits
	.align	1
	.global	changeIsSync
	.syntax unified
	.thumb
	.thumb_func
	.type	changeIsSync, %function
changeIsSync:
.LFB175:
	.loc 1 2503 35
	@ args = 0, pretend = 0, frame = 8
	@ frame_needed = 0, uses_anonymous_args = 0
	push	{lr}
.LCFI160:
	sub	sp, sp, #12
.LCFI161:
	mov	r3, r0
	strb	r3, [sp, #7]
	.loc 1 2504 26
	ldr	r2, .L406
	ldrb	r3, [sp, #7]
	strb	r3, [r2, #16]
	.loc 1 2506 22
	ldr	r3, .L406
	ldrb	r3, [r3, #16]	@ zero_extendqisi2
	.loc 1 2506 8
	cmp	r3, #1
	bne	.L403
	.loc 1 2507 9
	bl	leds_sync_on
	.loc 1 2508 9
	bl	resetStats
	.loc 1 2513 1
	b	.L405
.L403:
	.loc 1 2510 9
	bl	leds_sync_off
	.loc 1 2511 9
	bl	schedule_resetBackoff
.L405:
	.loc 1 2513 1
	nop
	add	sp, sp, #12
.LCFI162:
	@ sp needed
	ldr	pc, [sp], #4
.L407:
	.align	2
.L406:
	.word	ieee154e_vars
.LFE175:
	.size	changeIsSync, .-changeIsSync
	.section	.text.notif_sendDone,"ax",%progbits
	.align	1
	.global	notif_sendDone
	.syntax unified
	.thumb
	.thumb_func
	.type	notif_sendDone, %function
notif_sendDone:
.LFB176:
	.loc 1 2517 68
	@ args = 0, pretend = 0, frame = 8
	@ frame_needed = 0, uses_anonymous_args = 0
	push	{lr}
.LCFI163:
	sub	sp, sp, #12
.LCFI164:
	str	r0, [sp, #4]
	mov	r3, r1
	strb	r3, [sp, #3]
	.loc 1 2519 34
	ldr	r3, [sp, #4]
	ldrb	r2, [sp, #3]
	strb	r2, [r3, #60]
	.loc 1 2521 12
	ldr	r3, [sp, #4]
	adds	r3, r3, #82
	.loc 1 2521 5
	ldr	r2, .L409
	ldr	r0, [r2]
	str	r0, [r3]	@ unaligned
	ldrb	r2, [r2, #4]
	strb	r2, [r3, #4]
	.loc 1 2523 23
	ldr	r3, [sp, #4]
	movs	r2, #11
	strb	r2, [r3, #1]
	.loc 1 2525 5
	movs	r1, #2
	ldr	r0, .L409+4
	bl	scheduler_push_task
	.loc 1 2528 1
	nop
	add	sp, sp, #12
.LCFI165:
	@ sp needed
	ldr	pc, [sp], #4
.L410:
	.align	2
.L409:
	.word	ieee154e_vars
	.word	task_sixtopNotifSendDone
.LFE176:
	.size	notif_sendDone, .-notif_sendDone
	.section	.text.notif_receive,"ax",%progbits
	.align	1
	.global	notif_receive
	.syntax unified
	.thumb
	.thumb_func
	.type	notif_receive, %function
notif_receive:
.LFB177:
	.loc 1 2530 54
	@ args = 0, pretend = 0, frame = 8
	@ frame_needed = 0, uses_anonymous_args = 0
	push	{lr}
.LCFI166:
	sub	sp, sp, #12
.LCFI167:
	str	r0, [sp, #4]
	.loc 1 2532 12
	ldr	r3, [sp, #4]
	adds	r3, r3, #82
	.loc 1 2532 5
	ldr	r2, .L412
	ldr	r0, [r2]
	str	r0, [r3]	@ unaligned
	ldrb	r2, [r2, #4]
	strb	r2, [r3, #4]
	.loc 1 2534 5
	ldr	r3, [sp, #4]
	adds	r3, r3, #82
	mov	r0, r3
	bl	schedule_indicateRx
	.loc 1 2537 27
	ldr	r3, [sp, #4]
	movs	r2, #11
	strb	r2, [r3, #1]
	.loc 1 2539 5
	movs	r1, #1
	ldr	r0, .L412+4
	bl	scheduler_push_task
	.loc 1 2542 1
	nop
	add	sp, sp, #12
.LCFI168:
	@ sp needed
	ldr	pc, [sp], #4
.L413:
	.align	2
.L412:
	.word	ieee154e_vars
	.word	task_sixtopNotifReceive
.LFE177:
	.size	notif_receive, .-notif_receive
	.section	.text.resetStats,"ax",%progbits
	.align	1
	.global	resetStats
	.syntax unified
	.thumb
	.thumb_func
	.type	resetStats, %function
resetStats:
.LFB178:
	.loc 1 2546 35
	@ args = 0, pretend = 0, frame = 0
	@ frame_needed = 0, uses_anonymous_args = 0
	@ link register save eliminated.
	.loc 1 2547 31
	ldr	r3, .L415
	movs	r2, #0
	strb	r2, [r3]
	.loc 1 2548 31
	ldr	r3, .L415
	movs	r2, #0
	strb	r2, [r3, #1]
	.loc 1 2549 34
	ldr	r3, .L415
	movs	r2, #127
	strh	r2, [r3, #2]	@ movhi
	.loc 1 2550 34
	ldr	r3, .L415
	movw	r2, #65409
	strh	r2, [r3, #4]	@ movhi
	.loc 1 2551 30
	ldr	r3, .L415
	movs	r2, #0
	strb	r2, [r3, #7]
	movs	r2, #0
	strb	r2, [r3, #8]
	movs	r2, #0
	strb	r2, [r3, #9]
	movs	r2, #0
	strb	r2, [r3, #10]
	.loc 1 2552 33
	ldr	r3, .L415
	movs	r2, #0
	strb	r2, [r3, #11]
	movs	r2, #0
	strb	r2, [r3, #12]
	movs	r2, #0
	strb	r2, [r3, #13]
	movs	r2, #0
	strb	r2, [r3, #14]
	.loc 1 2554 1
	nop
	bx	lr
.L416:
	.align	2
.L415:
	.word	ieee154e_stats
.LFE178:
	.size	resetStats, .-resetStats
	.section	.text.updateStats,"ax",%progbits
	.align	1
	.global	updateStats
	.syntax unified
	.thumb
	.thumb_func
	.type	updateStats, %function
updateStats:
.LFB179:
	.loc 1 2556 56
	@ args = 0, pretend = 0, frame = 8
	@ frame_needed = 0, uses_anonymous_args = 0
	@ link register save eliminated.
	sub	sp, sp, #8
.LCFI169:
	str	r0, [sp, #4]
	.loc 1 2558 40
	ldr	r3, .L421
	ldrsh	r3, [r3, #2]
	mov	r2, r3
	.loc 1 2558 8
	ldr	r3, [sp, #4]
	cmp	r3, r2
	bge	.L418
	.loc 1 2559 38
	ldr	r3, [sp, #4]
	sxth	r2, r3
	ldr	r3, .L421
	strh	r2, [r3, #2]	@ movhi
.L418:
	.loc 1 2562 40
	ldr	r3, .L421
	ldrsh	r3, [r3, #4]
	mov	r2, r3
	.loc 1 2562 8
	ldr	r3, [sp, #4]
	cmp	r3, r2
	ble	.L420
	.loc 1 2563 38
	ldr	r3, [sp, #4]
	sxth	r2, r3
	ldr	r3, .L421
	strh	r2, [r3, #4]	@ movhi
.L420:
	.loc 1 2565 1
	nop
	add	sp, sp, #8
.LCFI170:
	@ sp needed
	bx	lr
.L422:
	.align	2
.L421:
	.word	ieee154e_stats
.LFE179:
	.size	updateStats, .-updateStats
	.section	.text.calculateFrequency,"ax",%progbits
	.align	1
	.global	calculateFrequency
	.syntax unified
	.thumb
	.thumb_func
	.type	calculateFrequency, %function
calculateFrequency:
.LFB180:
	.loc 1 2585 63
	@ args = 0, pretend = 0, frame = 8
	@ frame_needed = 0, uses_anonymous_args = 0
	@ link register save eliminated.
	sub	sp, sp, #8
.LCFI171:
	mov	r3, r0
	strb	r3, [sp, #7]
	.loc 1 2586 22
	ldr	r3, .L426
	ldrb	r3, [r3, #382]	@ zero_extendqisi2
	.loc 1 2586 8
	cmp	r3, #10
	bls	.L424
	.loc 1 2586 59 discriminator 1
	ldr	r3, .L426
	ldrb	r3, [r3, #382]	@ zero_extendqisi2
	.loc 1 2586 43 discriminator 1
	cmp	r3, #26
	bhi	.L424
	.loc 1 2587 29
	ldr	r3, .L426
	ldrb	r3, [r3, #382]	@ zero_extendqisi2
	b	.L425
.L424:
	.loc 1 2590 60
	ldr	r3, .L426
	ldrb	r2, [r3, #381]	@ zero_extendqisi2
	.loc 1 2590 88
	ldrb	r3, [sp, #7]
	add	r3, r3, r2
	uxtb	r3, r3
	and	r3, r3, #15
	.loc 1 2590 45
	ldr	r2, .L426
	add	r3, r3, r2
	ldrb	r3, [r3, #384]	@ zero_extendqisi2
	.loc 1 2590 19
	adds	r3, r3, #11
	uxtb	r3, r3
.L425:
	.loc 1 2592 1
	mov	r0, r3
	add	sp, sp, #8
.LCFI172:
	@ sp needed
	bx	lr
.L427:
	.align	2
.L426:
	.word	ieee154e_vars
.LFE180:
	.size	calculateFrequency, .-calculateFrequency
	.section	.text.changeState,"ax",%progbits
	.align	1
	.global	changeState
	.syntax unified
	.thumb
	.thumb_func
	.type	changeState, %function
changeState:
.LFB181:
	.loc 1 2601 45
	@ args = 0, pretend = 0, frame = 8
	@ frame_needed = 0, uses_anonymous_args = 0
	push	{lr}
.LCFI173:
	sub	sp, sp, #12
.LCFI174:
	mov	r3, r0
	strb	r3, [sp, #7]
	.loc 1 2603 25
	ldr	r2, .L433
	ldrb	r3, [sp, #7]
	strb	r3, [r2, #352]
	.loc 1 2605 26
	ldr	r3, .L433
	ldrb	r3, [r3, #352]	@ zero_extendqisi2
	cmp	r3, #25
	ite	hi
	movhi	r2, #1
	movls	r2, #0
	uxtb	r2, r2
	cmp	r2, #0
	bne	.L432
	movs	r2, #1
	lsl	r3, r2, r3
	ldr	r2, .L433+4
	ands	r2, r2, r3
	cmp	r2, #0
	ite	ne
	movne	r2, #1
	moveq	r2, #0
	uxtb	r2, r2
	cmp	r2, #0
	bne	.L430
	movw	r2, #32769
	ands	r2, r2, r3
	cmp	r2, #0
	ite	ne
	movne	r2, #1
	moveq	r2, #0
	uxtb	r2, r2
	cmp	r2, #0
	bne	.L431
	and	r3, r3, #18
	cmp	r3, #0
	ite	ne
	movne	r3, #1
	moveq	r3, #0
	uxtb	r3, r3
	cmp	r3, #0
	beq	.L432
	.loc 1 2608 13
	bl	debugpins_fsm_set
	.loc 1 2609 13
	b	.L429
.L431:
	.loc 1 2612 13
	bl	debugpins_fsm_clr
	.loc 1 2613 13
	b	.L429
.L430:
	.loc 1 2636 13
	bl	debugpins_fsm_toggle
	.loc 1 2637 13
	nop
.L429:
.L432:
	.loc 1 2639 1
	nop
	add	sp, sp, #12
.LCFI175:
	@ sp needed
	ldr	pc, [sp], #4
.L434:
	.align	2
.L433:
	.word	ieee154e_vars
	.word	67076076
.LFE181:
	.size	changeState, .-changeState
	.section	.text.handleRadioAndTiming,"ax",%progbits
	.align	1
	.syntax unified
	.thumb
	.thumb_func
	.type	handleRadioAndTiming, %function
handleRadioAndTiming:
.LFB182:
	.loc 1 2658 40
	@ args = 0, pretend = 0, frame = 0
	@ frame_needed = 0, uses_anonymous_args = 0
	push	{lr}
.LCFI176:
	sub	sp, sp, #12
.LCFI177:
	.loc 1 2660 5
	bl	radio_rfOff
	.loc 1 2663 22
	ldr	r3, .L438
	ldrb	r3, [r3, #412]	@ zero_extendqisi2
	.loc 1 2663 8
	cmp	r3, #1
	bne	.L436
	.loc 1 2664 39
	bl	sctimer_readCounter
	mov	r2, r0
	.loc 1 2664 76
	ldr	r3, .L438
	ldr	r3, [r3, #404]
	.loc 1 2664 61
	subs	r2, r2, r3
	.loc 1 2664 35
	ldr	r3, .L438
	ldr	r3, [r3, #408]
	add	r3, r3, r2
	ldr	r2, .L438
	str	r3, [r2, #408]
.L436:
	.loc 1 2670 5
	ldr	r3, .L438
	ldrb	r0, [r3, #420]	@ zero_extendqisi2
	.loc 1 2672 22
	ldr	r3, .L438
	ldrh	r3, [r3, #418]
	.loc 1 2670 5
	mov	r1, r3
	ldr	r3, .L438
	ldr	r2, [r3, #424]
	ldr	r3, .L438+4
	str	r3, [sp]
	movs	r3, #1
	bl	opentimers_scheduleAbsolute
	.loc 1 2680 36
	ldr	r3, .L438
	movs	r2, #0
	str	r2, [r3, #372]
	.loc 1 2681 36
	ldr	r3, .L438
	movs	r2, #0
	str	r2, [r3, #376]
	.loc 1 2684 30
	ldr	r3, .L438+8
	ldr	r2, [r3, #7]	@ unaligned
	.loc 1 2684 46
	ldr	r3, .L438
	ldr	r3, [r3, #408]
	.loc 1 2684 30
	add	r3, r3, r2
	ldr	r2, .L438+8
	str	r3, [r2, #7]	@ unaligned
	.loc 1 2685 33
	ldr	r3, .L438+8
	ldr	r3, [r3, #11]	@ unaligned
	.loc 1 2685 49
	ldr	r2, .L438
	ldrh	r2, [r2, #418]
	.loc 1 2685 33
	add	r3, r3, r2
	ldr	r2, .L438+8
	str	r3, [r2, #11]	@ unaligned
	.loc 1 2688 23
	ldr	r3, .L438+8
	ldr	r3, [r3, #11]	@ unaligned
	.loc 1 2688 8
	cmp	r3, #0
	bge	.L437
	.loc 1 2689 37
	ldr	r3, .L438+8
	ldr	r3, [r3, #11]	@ unaligned
	lsrs	r3, r3, #1
	ldr	r2, .L438+8
	str	r3, [r2, #11]	@ unaligned
	.loc 1 2690 34
	ldr	r3, .L438+8
	ldr	r3, [r3, #7]	@ unaligned
	lsrs	r3, r3, #1
	ldr	r2, .L438+8
	str	r3, [r2, #7]	@ unaligned
.L437:
	.loc 1 2694 31
	ldr	r3, .L438
	movs	r2, #0
	str	r2, [r3, #408]
	.loc 1 2695 35
	ldr	r3, .L438
	movs	r2, #0
	strb	r2, [r3, #412]
	.loc 1 2696 1
	nop
	add	sp, sp, #12
.LCFI178:
	@ sp needed
	ldr	pc, [sp], #4
.L439:
	.align	2
.L438:
	.word	ieee154e_vars
	.word	isr_ieee154e_newSlot
	.word	ieee154e_stats
.LFE182:
	.size	handleRadioAndTiming, .-handleRadioAndTiming
	.section	.text.handlePacketsAndBuffers,"ax",%progbits
	.align	1
	.syntax unified
	.thumb
	.thumb_func
	.type	handlePacketsAndBuffers, %function
handlePacketsAndBuffers:
.LFB183:
	.loc 1 2701 43
	@ args = 0, pretend = 0, frame = 0
	@ frame_needed = 0, uses_anonymous_args = 0
	push	{r3, lr}
.LCFI179:
	.loc 1 2703 22
	ldr	r3, .L448
	ldr	r3, [r3, #356]
	.loc 1 2703 8
	cmp	r3, #0
	beq	.L441
	.loc 1 2704 9
	movs	r1, #0
	ldr	r0, .L448
	bl	schedule_indicateTx
	.loc 1 2705 22
	ldr	r3, .L448
	ldr	r3, [r3, #356]
	.loc 1 2705 33
	ldrb	r2, [r3, #80]	@ zero_extendqisi2
	.loc 1 2705 49
	subs	r2, r2, #1
	uxtb	r2, r2
	strb	r2, [r3, #80]
	.loc 1 2707 26
	ldr	r3, .L448
	ldr	r3, [r3, #356]
	.loc 1 2707 37
	ldrb	r3, [r3, #80]	@ zero_extendqisi2
	.loc 1 2707 12
	cmp	r3, #0
	bne	.L442
	.loc 1 2708 13
	ldr	r3, .L448
	ldr	r3, [r3, #356]
	movs	r1, #1
	mov	r0, r3
	bl	notif_sendDone
	b	.L443
.L442:
	.loc 1 2710 26
	ldr	r3, .L448
	ldr	r3, [r3, #356]
	.loc 1 2710 45
	movs	r2, #10
	strb	r2, [r3, #1]
.L443:
	.loc 1 2712 34
	ldr	r3, .L448
	movs	r2, #0
	str	r2, [r3, #356]
.L441:
	.loc 1 2716 22
	ldr	r3, .L448
	ldr	r3, [r3, #360]
	.loc 1 2716 8
	cmp	r3, #0
	beq	.L444
	.loc 1 2717 9
	ldr	r3, .L448
	ldr	r3, [r3, #360]
	mov	r0, r3
	bl	notif_receive
	.loc 1 2718 36
	ldr	r3, .L448
	movs	r2, #0
	str	r2, [r3, #360]
.L444:
	.loc 1 2722 22
	ldr	r3, .L448
	ldr	r3, [r3, #364]
	.loc 1 2722 8
	cmp	r3, #0
	beq	.L445
	.loc 1 2723 9
	ldr	r3, .L448
	ldr	r3, [r3, #364]
	mov	r0, r3
	bl	openqueue_freePacketBuffer
	.loc 1 2724 33
	ldr	r3, .L448
	movs	r2, #0
	str	r2, [r3, #364]
.L445:
	.loc 1 2726 22
	ldr	r3, .L448
	ldr	r3, [r3, #368]
	.loc 1 2726 8
	cmp	r3, #0
	beq	.L447
	.loc 1 2727 9
	ldr	r3, .L448
	ldr	r3, [r3, #368]
	mov	r0, r3
	bl	openqueue_freePacketBuffer
	.loc 1 2728 35
	ldr	r3, .L448
	movs	r2, #0
	str	r2, [r3, #368]
.L447:
	.loc 1 2730 1
	nop
	pop	{r3, pc}
.L449:
	.align	2
.L448:
	.word	ieee154e_vars
.LFE183:
	.size	handlePacketsAndBuffers, .-handlePacketsAndBuffers
	.section	.text.handleCellManagement,"ax",%progbits
	.align	1
	.syntax unified
	.thumb
	.thumb_func
	.type	handleCellManagement, %function
handleCellManagement:
.LFB184:
	.loc 1 2735 40
	@ args = 0, pretend = 0, frame = 64
	@ frame_needed = 0, uses_anonymous_args = 0
	push	{lr}
.LCFI180:
	sub	sp, sp, #68
.LCFI181:
	.loc 1 2741 5
	ldr	r3, .L456
	ldrh	r3, [r3, #6]
	add	r2, sp, #40
	mov	r1, r2
	mov	r0, r3
	bl	schedule_getSlotInfo
	.loc 1 2742 13
	ldrb	r3, [sp, #57]	@ zero_extendqisi2
	.loc 1 2742 8
	cmp	r3, #2
	bne	.L451
	.loc 1 2743 26
	ldr	r3, .L456
	ldr	r3, [r3, #432]
	.loc 1 2743 12
	cmp	r3, #0
	beq	.L452
	.loc 1 2744 17
	add	r3, sp, #20
	mov	r0, r3
	bl	icmpv6rpl_getPreferredParentEui64
	mov	r3, r0
	.loc 1 2744 16
	cmp	r3, #0
	beq	.L452
	.loc 1 2745 17
	add	r3, sp, #20
	movs	r1, #2
	mov	r0, r3
	bl	msf_updateCellsUsed
.L452:
	.loc 1 2749 17
	ldrb	r3, [sp, #63]	@ zero_extendqisi2
	.loc 1 2749 12
	cmp	r3, #0
	beq	.L453
	.loc 1 2750 17
	add	r3, sp, #20
	mov	r0, r3
	bl	icmpv6rpl_getPreferredParentEui64
	mov	r3, r0
	.loc 1 2750 16
	cmp	r3, #0
	beq	.L451
	.loc 1 2751 21
	add	r3, sp, #20
	movs	r1, #2
	mov	r0, r3
	bl	schedule_hasNegotiatedCellToNeighbor
	mov	r3, r0
	.loc 1 2751 20
	cmp	r3, #0
	bne	.L451
	.loc 1 2752 21
	add	r3, sp, #20
	movs	r1, #2
	mov	r0, r3
	bl	msf_updateCellsElapsed
	b	.L451
.L453:
	.loc 1 2756 13
	add	r3, sp, #40
	movs	r1, #2
	mov	r0, r3
	bl	msf_updateCellsElapsed
.L451:
	.loc 1 2759 43
	ldr	r3, .L456
	movs	r2, #0
	str	r2, [r3, #432]
	.loc 1 2762 9
	bl	schedule_getSlottOffset
	mov	r3, r0
	mov	r2, r3
	.loc 1 2762 51
	ldr	r3, .L456
	ldrh	r3, [r3, #6]
	.loc 1 2762 8
	cmp	r2, r3
	bne	.L455
	.loc 1 2763 9 discriminator 1
	bl	schedule_getIsAutoCell
	mov	r3, r0
	.loc 1 2762 63 discriminator 1
	cmp	r3, #0
	beq	.L455
	.loc 1 2763 37
	bl	schedule_getType
	mov	r3, r0
	.loc 1 2763 34
	cmp	r3, #1
	bne	.L455
	.loc 1 2765 9
	mov	r3, sp
	mov	r0, r3
	bl	schedule_getNeighbor
	.loc 1 2766 13
	mov	r3, sp
	mov	r0, r3
	bl	openqueue_macGetUnicastPacket
	mov	r3, r0
	.loc 1 2766 12
	cmp	r3, #0
	bne	.L455
	.loc 1 2767 13
	ldr	r3, .L456
	ldrh	r0, [r3, #6]
	mov	r3, sp
	movs	r2, #1
	movs	r1, #1
	bl	schedule_removeActiveSlot
.L455:
	.loc 1 2775 1
	nop
	add	sp, sp, #68
.LCFI182:
	@ sp needed
	ldr	pc, [sp], #4
.L457:
	.align	2
.L456:
	.word	ieee154e_vars
.LFE184:
	.size	handleCellManagement, .-handleCellManagement
	.section	.text.finalizeSlot,"ax",%progbits
	.align	1
	.syntax unified
	.thumb
	.thumb_func
	.type	finalizeSlot, %function
finalizeSlot:
.LFB185:
	.loc 1 2780 32
	@ args = 0, pretend = 0, frame = 0
	@ frame_needed = 0, uses_anonymous_args = 0
	push	{r4, lr}
.LCFI183:
	sub	sp, sp, #8
.LCFI184:
	.loc 1 2782 5
	movs	r0, #0
	bl	changeState
	.loc 1 2785 22
	ldr	r3, .L462
	ldrb	r3, [r3, #16]	@ zero_extendqisi2
	.loc 1 2785 8
	cmp	r3, #1
	bne	.L459
	.loc 1 2786 9
	ldr	r3, .L462
	ldrb	r0, [r3, #428]	@ zero_extendqisi2
	.loc 1 2788 13
	ldr	r3, .L462
	ldrh	r3, [r3, #418]
	subs	r3, r3, #33
	.loc 1 2786 9
	mov	r1, r3
	ldr	r3, .L462
	ldr	r2, [r3, #424]
	ldr	r3, .L462+4
	str	r3, [sp]
	movs	r3, #1
	bl	opentimers_scheduleAbsolute
.L459:
	.loc 1 2796 9
	ldr	r3, .L462
	ldrh	r3, [r3, #418]
	.loc 1 2796 21
	mov	r2, r3
	.loc 1 2796 36
	ldr	r3, .L462
	ldr	r3, [r3, #424]
	.loc 1 2796 21
	adds	r4, r2, r3
	.loc 1 2796 60
	bl	opentimers_getValue
	mov	r3, r0
	.loc 1 2796 58
	subs	r3, r4, r3
	subs	r3, r3, #33
	.loc 1 2797 22
	ldr	r2, .L462
	ldrh	r2, [r2, #418]
	.loc 1 2796 8
	cmp	r3, r2
	bcs	.L461
	.loc 1 2798 9
	bl	openserial_inhibitStop
.L461:
	.loc 1 2800 1
	nop
	add	sp, sp, #8
.LCFI185:
	@ sp needed
	pop	{r4, pc}
.L463:
	.align	2
.L462:
	.word	ieee154e_vars
	.word	isr_ieee154e_inhibitStart
.LFE185:
	.size	finalizeSlot, .-finalizeSlot
	.section	.text.ieee154e_isSynch,"ax",%progbits
	.align	1
	.global	ieee154e_isSynch
	.syntax unified
	.thumb
	.thumb_func
	.type	ieee154e_isSynch, %function
ieee154e_isSynch:
.LFB186:
	.loc 1 2802 29
	@ args = 0, pretend = 0, frame = 0
	@ frame_needed = 0, uses_anonymous_args = 0
	@ link register save eliminated.
	.loc 1 2803 25
	ldr	r3, .L466
	ldrb	r3, [r3, #16]	@ zero_extendqisi2
	.loc 1 2804 1
	mov	r0, r3
	bx	lr
.L467:
	.align	2
.L466:
	.word	ieee154e_vars
.LFE186:
	.size	ieee154e_isSynch, .-ieee154e_isSynch
	.section	.text.endSlot,"ax",%progbits
	.align	1
	.global	endSlot
	.syntax unified
	.thumb
	.thumb_func
	.type	endSlot, %function
endSlot:
.LFB187:
	.loc 1 2805 20
	@ args = 0, pretend = 0, frame = 0
	@ frame_needed = 0, uses_anonymous_args = 0
	push	{r3, lr}
.LCFI186:
	.loc 1 2807 5
	bl	handleRadioAndTiming
	.loc 1 2810 5
	bl	handlePacketsAndBuffers
	.loc 1 2813 5
	bl	handleCellManagement
	.loc 1 2816 5
	bl	finalizeSlot
	.loc 1 2817 1
	nop
	pop	{r3, pc}
.LFE187:
	.size	endSlot, .-endSlot
	.section	.debug_frame,"",%progbits
.Lframe0:
	.4byte	.LECIE0-.LSCIE0
.LSCIE0:
	.4byte	0xffffffff
	.byte	0x3
	.ascii	"\000"
	.uleb128 0x1
	.sleb128 -4
	.uleb128 0xe
	.byte	0xc
	.uleb128 0xd
	.uleb128 0
	.align	2
.LECIE0:
.LSFDE0:
	.4byte	.LEFDE0-.LASFDE0
.LASFDE0:
	.4byte	.Lframe0
	.4byte	.LFB115
	.4byte	.LFE115-.LFB115
	.byte	0x4
	.4byte	.LCFI0-.LFB115
	.byte	0xe
	.uleb128 0xc
	.byte	0x84
	.uleb128 0x3
	.byte	0x85
	.uleb128 0x2
	.byte	0x8e
	.uleb128 0x1
	.byte	0x4
	.4byte	.LCFI1-.LCFI0
	.byte	0xe
	.uleb128 0x18
	.byte	0x4
	.4byte	.LCFI2-.LCFI1
	.byte	0xe
	.uleb128 0xc
	.align	2
.LEFDE0:
.LSFDE2:
	.4byte	.LEFDE2-.LASFDE2
.LASFDE2:
	.4byte	.Lframe0
	.4byte	.LFB116
	.4byte	.LFE116-.LFB116
	.byte	0x4
	.4byte	.LCFI3-.LFB116
	.byte	0xe
	.uleb128 0x10
	.byte	0x4
	.4byte	.LCFI4-.LCFI3
	.byte	0xe
	.uleb128 0
	.align	2
.LEFDE2:
.LSFDE4:
	.4byte	.LEFDE4-.LASFDE4
.LASFDE4:
	.4byte	.Lframe0
	.4byte	.LFB117
	.4byte	.LFE117-.LFB117
	.byte	0x4
	.4byte	.LCFI5-.LFB117
	.byte	0xe
	.uleb128 0x4
	.byte	0x8e
	.uleb128 0x1
	.byte	0x4
	.4byte	.LCFI6-.LCFI5
	.byte	0xe
	.uleb128 0x18
	.byte	0x4
	.4byte	.LCFI7-.LCFI6
	.byte	0xe
	.uleb128 0x4
	.align	2
.LEFDE4:
.LSFDE6:
	.4byte	.LEFDE6-.LASFDE6
.LASFDE6:
	.4byte	.Lframe0
	.4byte	.LFB118
	.4byte	.LFE118-.LFB118
	.byte	0x4
	.4byte	.LCFI8-.LFB118
	.byte	0xe
	.uleb128 0x4
	.byte	0x8e
	.uleb128 0x1
	.byte	0x4
	.4byte	.LCFI9-.LCFI8
	.byte	0xe
	.uleb128 0x18
	.byte	0x4
	.4byte	.LCFI10-.LCFI9
	.byte	0xe
	.uleb128 0x4
	.align	2
.LEFDE6:
.LSFDE8:
	.4byte	.LEFDE8-.LASFDE8
.LASFDE8:
	.4byte	.Lframe0
	.4byte	.LFB119
	.4byte	.LFE119-.LFB119
	.byte	0x4
	.4byte	.LCFI11-.LFB119
	.byte	0xe
	.uleb128 0x4
	.byte	0x8e
	.uleb128 0x1
	.byte	0x4
	.4byte	.LCFI12-.LCFI11
	.byte	0xe
	.uleb128 0x10
	.byte	0x4
	.4byte	.LCFI13-.LCFI12
	.byte	0xe
	.uleb128 0x4
	.align	2
.LEFDE8:
.LSFDE10:
	.4byte	.LEFDE10-.LASFDE10
.LASFDE10:
	.4byte	.Lframe0
	.4byte	.LFB120
	.4byte	.LFE120-.LFB120
	.byte	0x4
	.4byte	.LCFI14-.LFB120
	.byte	0xe
	.uleb128 0x4
	.byte	0x8e
	.uleb128 0x1
	.byte	0x4
	.4byte	.LCFI15-.LCFI14
	.byte	0xe
	.uleb128 0x20
	.byte	0x4
	.4byte	.LCFI16-.LCFI15
	.byte	0xe
	.uleb128 0x4
	.align	2
.LEFDE10:
.LSFDE12:
	.4byte	.LEFDE12-.LASFDE12
.LASFDE12:
	.4byte	.Lframe0
	.4byte	.LFB121
	.4byte	.LFE121-.LFB121
	.byte	0x4
	.4byte	.LCFI17-.LFB121
	.byte	0xe
	.uleb128 0x4
	.byte	0x8e
	.uleb128 0x1
	.byte	0x4
	.4byte	.LCFI18-.LCFI17
	.byte	0xe
	.uleb128 0x20
	.byte	0x4
	.4byte	.LCFI19-.LCFI18
	.byte	0xe
	.uleb128 0x4
	.align	2
.LEFDE12:
.LSFDE14:
	.4byte	.LEFDE14-.LASFDE14
.LASFDE14:
	.4byte	.Lframe0
	.4byte	.LFB122
	.4byte	.LFE122-.LFB122
	.byte	0x4
	.4byte	.LCFI20-.LFB122
	.byte	0xe
	.uleb128 0x4
	.byte	0x8e
	.uleb128 0x1
	.byte	0x4
	.4byte	.LCFI21-.LCFI20
	.byte	0xe
	.uleb128 0x10
	.byte	0x4
	.4byte	.LCFI22-.LCFI21
	.byte	0xe
	.uleb128 0x4
	.align	2
.LEFDE14:
.LSFDE16:
	.4byte	.LEFDE16-.LASFDE16
.LASFDE16:
	.4byte	.Lframe0
	.4byte	.LFB123
	.4byte	.LFE123-.LFB123
	.byte	0x4
	.4byte	.LCFI23-.LFB123
	.byte	0xe
	.uleb128 0x4
	.byte	0x8e
	.uleb128 0x1
	.byte	0x4
	.4byte	.LCFI24-.LCFI23
	.byte	0xe
	.uleb128 0x10
	.byte	0x4
	.4byte	.LCFI25-.LCFI24
	.byte	0xe
	.uleb128 0x4
	.align	2
.LEFDE16:
.LSFDE18:
	.4byte	.LEFDE18-.LASFDE18
.LASFDE18:
	.4byte	.Lframe0
	.4byte	.LFB124
	.4byte	.LFE124-.LFB124
	.byte	0x4
	.4byte	.LCFI26-.LFB124
	.byte	0xe
	.uleb128 0x8
	.byte	0x83
	.uleb128 0x2
	.byte	0x8e
	.uleb128 0x1
	.align	2
.LEFDE18:
.LSFDE20:
	.4byte	.LEFDE20-.LASFDE20
.LASFDE20:
	.4byte	.Lframe0
	.4byte	.LFB125
	.4byte	.LFE125-.LFB125
	.byte	0x4
	.4byte	.LCFI27-.LFB125
	.byte	0xe
	.uleb128 0x4
	.byte	0x8e
	.uleb128 0x1
	.byte	0x4
	.4byte	.LCFI28-.LCFI27
	.byte	0xe
	.uleb128 0x10
	.byte	0x4
	.4byte	.LCFI29-.LCFI28
	.byte	0xe
	.uleb128 0x4
	.align	2
.LEFDE20:
.LSFDE22:
	.4byte	.LEFDE22-.LASFDE22
.LASFDE22:
	.4byte	.Lframe0
	.4byte	.LFB126
	.4byte	.LFE126-.LFB126
	.byte	0x4
	.4byte	.LCFI30-.LFB126
	.byte	0xe
	.uleb128 0x4
	.byte	0x8e
	.uleb128 0x1
	.byte	0x4
	.4byte	.LCFI31-.LCFI30
	.byte	0xe
	.uleb128 0x10
	.byte	0x4
	.4byte	.LCFI32-.LCFI31
	.byte	0xe
	.uleb128 0x4
	.align	2
.LEFDE22:
.LSFDE24:
	.4byte	.LEFDE24-.LASFDE24
.LASFDE24:
	.4byte	.Lframe0
	.4byte	.LFB127
	.4byte	.LFE127-.LFB127
	.byte	0x4
	.4byte	.LCFI33-.LFB127
	.byte	0xe
	.uleb128 0xc
	.byte	0x84
	.uleb128 0x3
	.byte	0x85
	.uleb128 0x2
	.byte	0x8e
	.uleb128 0x1
	.byte	0x4
	.4byte	.LCFI34-.LCFI33
	.byte	0xe
	.uleb128 0x68
	.byte	0x4
	.4byte	.LCFI35-.LCFI34
	.byte	0xe
	.uleb128 0xc
	.align	2
.LEFDE24:
.LSFDE26:
	.4byte	.LEFDE26-.LASFDE26
.LASFDE26:
	.4byte	.Lframe0
	.4byte	.LFB128
	.4byte	.LFE128-.LFB128
	.byte	0x4
	.4byte	.LCFI36-.LFB128
	.byte	0xe
	.uleb128 0x4
	.byte	0x8e
	.uleb128 0x1
	.byte	0x4
	.4byte	.LCFI37-.LCFI36
	.byte	0xe
	.uleb128 0x20
	.byte	0x4
	.4byte	.LCFI38-.LCFI37
	.byte	0xe
	.uleb128 0x4
	.align	2
.LEFDE26:
.LSFDE28:
	.4byte	.LEFDE28-.LASFDE28
.LASFDE28:
	.4byte	.Lframe0
	.4byte	.LFB129
	.4byte	.LFE129-.LFB129
	.byte	0x4
	.4byte	.LCFI39-.LFB129
	.byte	0xe
	.uleb128 0x4
	.byte	0x8e
	.uleb128 0x1
	.byte	0x4
	.4byte	.LCFI40-.LCFI39
	.byte	0xe
	.uleb128 0x30
	.byte	0x4
	.4byte	.LCFI41-.LCFI40
	.byte	0xe
	.uleb128 0x4
	.align	2
.LEFDE28:
.LSFDE30:
	.4byte	.LEFDE30-.LASFDE30
.LASFDE30:
	.4byte	.Lframe0
	.4byte	.LFB130
	.4byte	.LFE130-.LFB130
	.byte	0x4
	.4byte	.LCFI42-.LFB130
	.byte	0xe
	.uleb128 0x4
	.byte	0x8e
	.uleb128 0x1
	.byte	0x4
	.4byte	.LCFI43-.LCFI42
	.byte	0xe
	.uleb128 0x18
	.byte	0x4
	.4byte	.LCFI44-.LCFI43
	.byte	0xe
	.uleb128 0x4
	.align	2
.LEFDE30:
.LSFDE32:
	.4byte	.LEFDE32-.LASFDE32
.LASFDE32:
	.4byte	.Lframe0
	.4byte	.LFB131
	.4byte	.LFE131-.LFB131
	.byte	0x4
	.4byte	.LCFI45-.LFB131
	.byte	0xe
	.uleb128 0x4
	.byte	0x8e
	.uleb128 0x1
	.byte	0x4
	.4byte	.LCFI46-.LCFI45
	.byte	0xe
	.uleb128 0x10
	.byte	0x4
	.4byte	.LCFI47-.LCFI46
	.byte	0xe
	.uleb128 0x4
	.align	2
.LEFDE32:
.LSFDE34:
	.4byte	.LEFDE34-.LASFDE34
.LASFDE34:
	.4byte	.Lframe0
	.4byte	.LFB132
	.4byte	.LFE132-.LFB132
	.byte	0x4
	.4byte	.LCFI48-.LFB132
	.byte	0xe
	.uleb128 0x4
	.byte	0x8e
	.uleb128 0x1
	.byte	0x4
	.4byte	.LCFI49-.LCFI48
	.byte	0xe
	.uleb128 0x10
	.byte	0x4
	.4byte	.LCFI50-.LCFI49
	.byte	0xe
	.uleb128 0x4
	.align	2
.LEFDE34:
.LSFDE36:
	.4byte	.LEFDE36-.LASFDE36
.LASFDE36:
	.4byte	.Lframe0
	.4byte	.LFB133
	.4byte	.LFE133-.LFB133
	.byte	0x4
	.4byte	.LCFI51-.LFB133
	.byte	0xe
	.uleb128 0x4
	.byte	0x8e
	.uleb128 0x1
	.byte	0x4
	.4byte	.LCFI52-.LCFI51
	.byte	0xe
	.uleb128 0x10
	.byte	0x4
	.4byte	.LCFI53-.LCFI52
	.byte	0xe
	.uleb128 0x4
	.align	2
.LEFDE36:
.LSFDE38:
	.4byte	.LEFDE38-.LASFDE38
.LASFDE38:
	.4byte	.Lframe0
	.4byte	.LFB134
	.4byte	.LFE134-.LFB134
	.byte	0x4
	.4byte	.LCFI54-.LFB134
	.byte	0xe
	.uleb128 0x4
	.byte	0x8e
	.uleb128 0x1
	.byte	0x4
	.4byte	.LCFI55-.LCFI54
	.byte	0xe
	.uleb128 0x18
	.byte	0x4
	.4byte	.LCFI56-.LCFI55
	.byte	0xe
	.uleb128 0x4
	.align	2
.LEFDE38:
.LSFDE40:
	.4byte	.LEFDE40-.LASFDE40
.LASFDE40:
	.4byte	.Lframe0
	.4byte	.LFB135
	.4byte	.LFE135-.LFB135
	.byte	0x4
	.4byte	.LCFI57-.LFB135
	.byte	0xe
	.uleb128 0x4
	.byte	0x8e
	.uleb128 0x1
	.byte	0x4
	.4byte	.LCFI58-.LCFI57
	.byte	0xe
	.uleb128 0x10
	.byte	0x4
	.4byte	.LCFI59-.LCFI58
	.byte	0xe
	.uleb128 0x4
	.align	2
.LEFDE40:
.LSFDE42:
	.4byte	.LEFDE42-.LASFDE42
.LASFDE42:
	.4byte	.Lframe0
	.4byte	.LFB136
	.4byte	.LFE136-.LFB136
	.byte	0x4
	.4byte	.LCFI60-.LFB136
	.byte	0xe
	.uleb128 0x4
	.byte	0x8e
	.uleb128 0x1
	.byte	0x4
	.4byte	.LCFI61-.LCFI60
	.byte	0xe
	.uleb128 0x20
	.byte	0x4
	.4byte	.LCFI62-.LCFI61
	.byte	0xe
	.uleb128 0x4
	.align	2
.LEFDE42:
.LSFDE44:
	.4byte	.LEFDE44-.LASFDE44
.LASFDE44:
	.4byte	.Lframe0
	.4byte	.LFB137
	.4byte	.LFE137-.LFB137
	.byte	0x4
	.4byte	.LCFI63-.LFB137
	.byte	0xe
	.uleb128 0x4
	.byte	0x8e
	.uleb128 0x1
	.byte	0x4
	.4byte	.LCFI64-.LCFI63
	.byte	0xe
	.uleb128 0x10
	.byte	0x4
	.4byte	.LCFI65-.LCFI64
	.byte	0xe
	.uleb128 0x4
	.align	2
.LEFDE44:
.LSFDE46:
	.4byte	.LEFDE46-.LASFDE46
.LASFDE46:
	.4byte	.Lframe0
	.4byte	.LFB138
	.4byte	.LFE138-.LFB138
	.byte	0x4
	.4byte	.LCFI66-.LFB138
	.byte	0xe
	.uleb128 0x4
	.byte	0x8e
	.uleb128 0x1
	.byte	0x4
	.4byte	.LCFI67-.LCFI66
	.byte	0xe
	.uleb128 0x10
	.byte	0x4
	.4byte	.LCFI68-.LCFI67
	.byte	0xe
	.uleb128 0x4
	.align	2
.LEFDE46:
.LSFDE48:
	.4byte	.LEFDE48-.LASFDE48
.LASFDE48:
	.4byte	.Lframe0
	.4byte	.LFB139
	.4byte	.LFE139-.LFB139
	.byte	0x4
	.4byte	.LCFI69-.LFB139
	.byte	0xe
	.uleb128 0x4
	.byte	0x8e
	.uleb128 0x1
	.byte	0x4
	.4byte	.LCFI70-.LCFI69
	.byte	0xe
	.uleb128 0x10
	.byte	0x4
	.4byte	.LCFI71-.LCFI70
	.byte	0xe
	.uleb128 0x4
	.align	2
.LEFDE48:
.LSFDE50:
	.4byte	.LEFDE50-.LASFDE50
.LASFDE50:
	.4byte	.Lframe0
	.4byte	.LFB140
	.4byte	.LFE140-.LFB140
	.byte	0x4
	.4byte	.LCFI72-.LFB140
	.byte	0xe
	.uleb128 0x8
	.byte	0x83
	.uleb128 0x2
	.byte	0x8e
	.uleb128 0x1
	.align	2
.LEFDE50:
.LSFDE52:
	.4byte	.LEFDE52-.LASFDE52
.LASFDE52:
	.4byte	.Lframe0
	.4byte	.LFB141
	.4byte	.LFE141-.LFB141
	.byte	0x4
	.4byte	.LCFI73-.LFB141
	.byte	0xe
	.uleb128 0x4
	.byte	0x8e
	.uleb128 0x1
	.byte	0x4
	.4byte	.LCFI74-.LCFI73
	.byte	0xe
	.uleb128 0x18
	.byte	0x4
	.4byte	.LCFI75-.LCFI74
	.byte	0xe
	.uleb128 0x4
	.align	2
.LEFDE52:
.LSFDE54:
	.4byte	.LEFDE54-.LASFDE54
.LASFDE54:
	.4byte	.Lframe0
	.4byte	.LFB142
	.4byte	.LFE142-.LFB142
	.byte	0x4
	.4byte	.LCFI76-.LFB142
	.byte	0xe
	.uleb128 0x4
	.byte	0x8e
	.uleb128 0x1
	.byte	0x4
	.4byte	.LCFI77-.LCFI76
	.byte	0xe
	.uleb128 0x10
	.byte	0x4
	.4byte	.LCFI78-.LCFI77
	.byte	0xe
	.uleb128 0x4
	.align	2
.LEFDE54:
.LSFDE56:
	.4byte	.LEFDE56-.LASFDE56
.LASFDE56:
	.4byte	.Lframe0
	.4byte	.LFB143
	.4byte	.LFE143-.LFB143
	.byte	0x4
	.4byte	.LCFI79-.LFB143
	.byte	0xe
	.uleb128 0xc
	.byte	0x84
	.uleb128 0x3
	.byte	0x85
	.uleb128 0x2
	.byte	0x8e
	.uleb128 0x1
	.byte	0x4
	.4byte	.LCFI80-.LCFI79
	.byte	0xe
	.uleb128 0x60
	.byte	0x4
	.4byte	.LCFI81-.LCFI80
	.byte	0xe
	.uleb128 0xc
	.align	2
.LEFDE56:
.LSFDE58:
	.4byte	.LEFDE58-.LASFDE58
.LASFDE58:
	.4byte	.Lframe0
	.4byte	.LFB144
	.4byte	.LFE144-.LFB144
	.byte	0x4
	.4byte	.LCFI82-.LFB144
	.byte	0xe
	.uleb128 0x4
	.byte	0x8e
	.uleb128 0x1
	.byte	0x4
	.4byte	.LCFI83-.LCFI82
	.byte	0xe
	.uleb128 0x10
	.byte	0x4
	.4byte	.LCFI84-.LCFI83
	.byte	0xe
	.uleb128 0x4
	.align	2
.LEFDE58:
.LSFDE60:
	.4byte	.LEFDE60-.LASFDE60
.LASFDE60:
	.4byte	.Lframe0
	.4byte	.LFB145
	.4byte	.LFE145-.LFB145
	.byte	0x4
	.4byte	.LCFI85-.LFB145
	.byte	0xe
	.uleb128 0x4
	.byte	0x8e
	.uleb128 0x1
	.byte	0x4
	.4byte	.LCFI86-.LCFI85
	.byte	0xe
	.uleb128 0x10
	.byte	0x4
	.4byte	.LCFI87-.LCFI86
	.byte	0xe
	.uleb128 0x4
	.align	2
.LEFDE60:
.LSFDE62:
	.4byte	.LEFDE62-.LASFDE62
.LASFDE62:
	.4byte	.Lframe0
	.4byte	.LFB146
	.4byte	.LFE146-.LFB146
	.byte	0x4
	.4byte	.LCFI88-.LFB146
	.byte	0xe
	.uleb128 0x4
	.byte	0x8e
	.uleb128 0x1
	.byte	0x4
	.4byte	.LCFI89-.LCFI88
	.byte	0xe
	.uleb128 0x10
	.byte	0x4
	.4byte	.LCFI90-.LCFI89
	.byte	0xe
	.uleb128 0x4
	.align	2
.LEFDE62:
.LSFDE64:
	.4byte	.LEFDE64-.LASFDE64
.LASFDE64:
	.4byte	.Lframe0
	.4byte	.LFB147
	.4byte	.LFE147-.LFB147
	.byte	0x4
	.4byte	.LCFI91-.LFB147
	.byte	0xe
	.uleb128 0x8
	.byte	0x83
	.uleb128 0x2
	.byte	0x8e
	.uleb128 0x1
	.align	2
.LEFDE64:
.LSFDE66:
	.4byte	.LEFDE66-.LASFDE66
.LASFDE66:
	.4byte	.Lframe0
	.4byte	.LFB148
	.4byte	.LFE148-.LFB148
	.byte	0x4
	.4byte	.LCFI92-.LFB148
	.byte	0xe
	.uleb128 0x4
	.byte	0x8e
	.uleb128 0x1
	.byte	0x4
	.4byte	.LCFI93-.LCFI92
	.byte	0xe
	.uleb128 0x18
	.byte	0x4
	.4byte	.LCFI94-.LCFI93
	.byte	0xe
	.uleb128 0x4
	.align	2
.LEFDE66:
.LSFDE68:
	.4byte	.LEFDE68-.LASFDE68
.LASFDE68:
	.4byte	.Lframe0
	.4byte	.LFB149
	.4byte	.LFE149-.LFB149
	.byte	0x4
	.4byte	.LCFI95-.LFB149
	.byte	0xe
	.uleb128 0x4
	.byte	0x8e
	.uleb128 0x1
	.byte	0x4
	.4byte	.LCFI96-.LCFI95
	.byte	0xe
	.uleb128 0x10
	.byte	0x4
	.4byte	.LCFI97-.LCFI96
	.byte	0xe
	.uleb128 0x4
	.align	2
.LEFDE68:
.LSFDE70:
	.4byte	.LEFDE70-.LASFDE70
.LASFDE70:
	.4byte	.Lframe0
	.4byte	.LFB150
	.4byte	.LFE150-.LFB150
	.byte	0x4
	.4byte	.LCFI98-.LFB150
	.byte	0xe
	.uleb128 0xc
	.byte	0x84
	.uleb128 0x3
	.byte	0x85
	.uleb128 0x2
	.byte	0x8e
	.uleb128 0x1
	.byte	0x4
	.4byte	.LCFI99-.LCFI98
	.byte	0xe
	.uleb128 0x88
	.byte	0x4
	.4byte	.LCFI100-.LCFI99
	.byte	0xe
	.uleb128 0xc
	.align	2
.LEFDE70:
.LSFDE72:
	.4byte	.LEFDE72-.LASFDE72
.LASFDE72:
	.4byte	.Lframe0
	.4byte	.LFB151
	.4byte	.LFE151-.LFB151
	.byte	0x4
	.4byte	.LCFI101-.LFB151
	.byte	0xe
	.uleb128 0x4
	.byte	0x8e
	.uleb128 0x1
	.byte	0x4
	.4byte	.LCFI102-.LCFI101
	.byte	0xe
	.uleb128 0x10
	.byte	0x4
	.4byte	.LCFI103-.LCFI102
	.byte	0xe
	.uleb128 0x4
	.align	2
.LEFDE72:
.LSFDE74:
	.4byte	.LEFDE74-.LASFDE74
.LASFDE74:
	.4byte	.Lframe0
	.4byte	.LFB152
	.4byte	.LFE152-.LFB152
	.byte	0x4
	.4byte	.LCFI104-.LFB152
	.byte	0xe
	.uleb128 0x4
	.byte	0x8e
	.uleb128 0x1
	.byte	0x4
	.4byte	.LCFI105-.LCFI104
	.byte	0xe
	.uleb128 0x10
	.byte	0x4
	.4byte	.LCFI106-.LCFI105
	.byte	0xe
	.uleb128 0x4
	.align	2
.LEFDE74:
.LSFDE76:
	.4byte	.LEFDE76-.LASFDE76
.LASFDE76:
	.4byte	.Lframe0
	.4byte	.LFB153
	.4byte	.LFE153-.LFB153
	.byte	0x4
	.4byte	.LCFI107-.LFB153
	.byte	0xe
	.uleb128 0x4
	.byte	0x8e
	.uleb128 0x1
	.byte	0x4
	.4byte	.LCFI108-.LCFI107
	.byte	0xe
	.uleb128 0x10
	.byte	0x4
	.4byte	.LCFI109-.LCFI108
	.byte	0xe
	.uleb128 0x4
	.align	2
.LEFDE76:
.LSFDE78:
	.4byte	.LEFDE78-.LASFDE78
.LASFDE78:
	.4byte	.Lframe0
	.4byte	.LFB154
	.4byte	.LFE154-.LFB154
	.byte	0x4
	.4byte	.LCFI110-.LFB154
	.byte	0xe
	.uleb128 0x4
	.byte	0x8e
	.uleb128 0x1
	.byte	0x4
	.4byte	.LCFI111-.LCFI110
	.byte	0xe
	.uleb128 0x10
	.byte	0x4
	.4byte	.LCFI112-.LCFI111
	.byte	0xe
	.uleb128 0x4
	.align	2
.LEFDE78:
.LSFDE80:
	.4byte	.LEFDE80-.LASFDE80
.LASFDE80:
	.4byte	.Lframe0
	.4byte	.LFB155
	.4byte	.LFE155-.LFB155
	.byte	0x4
	.4byte	.LCFI113-.LFB155
	.byte	0xe
	.uleb128 0x4
	.byte	0x8e
	.uleb128 0x1
	.byte	0x4
	.4byte	.LCFI114-.LCFI113
	.byte	0xe
	.uleb128 0x18
	.byte	0x4
	.4byte	.LCFI115-.LCFI114
	.byte	0xe
	.uleb128 0x4
	.align	2
.LEFDE80:
.LSFDE82:
	.4byte	.LEFDE82-.LASFDE82
.LASFDE82:
	.4byte	.Lframe0
	.4byte	.LFB156
	.4byte	.LFE156-.LFB156
	.byte	0x4
	.4byte	.LCFI116-.LFB156
	.byte	0xe
	.uleb128 0x4
	.byte	0x8e
	.uleb128 0x1
	.byte	0x4
	.4byte	.LCFI117-.LCFI116
	.byte	0xe
	.uleb128 0x10
	.byte	0x4
	.4byte	.LCFI118-.LCFI117
	.byte	0xe
	.uleb128 0x4
	.align	2
.LEFDE82:
.LSFDE84:
	.4byte	.LEFDE84-.LASFDE84
.LASFDE84:
	.4byte	.Lframe0
	.4byte	.LFB157
	.4byte	.LFE157-.LFB157
	.byte	0x4
	.4byte	.LCFI119-.LFB157
	.byte	0xe
	.uleb128 0x4
	.byte	0x8e
	.uleb128 0x1
	.byte	0x4
	.4byte	.LCFI120-.LCFI119
	.byte	0xe
	.uleb128 0x18
	.byte	0x4
	.4byte	.LCFI121-.LCFI120
	.byte	0xe
	.uleb128 0x4
	.align	2
.LEFDE84:
.LSFDE86:
	.4byte	.LEFDE86-.LASFDE86
.LASFDE86:
	.4byte	.Lframe0
	.4byte	.LFB158
	.4byte	.LFE158-.LFB158
	.byte	0x4
	.4byte	.LCFI122-.LFB158
	.byte	0xe
	.uleb128 0x8
	.byte	0x84
	.uleb128 0x2
	.byte	0x8e
	.uleb128 0x1
	.byte	0x4
	.4byte	.LCFI123-.LCFI122
	.byte	0xe
	.uleb128 0x10
	.byte	0x4
	.4byte	.LCFI124-.LCFI123
	.byte	0xe
	.uleb128 0x8
	.align	2
.LEFDE86:
.LSFDE88:
	.4byte	.LEFDE88-.LASFDE88
.LASFDE88:
	.4byte	.Lframe0
	.4byte	.LFB159
	.4byte	.LFE159-.LFB159
	.byte	0x4
	.4byte	.LCFI125-.LFB159
	.byte	0xe
	.uleb128 0x8
	.byte	0x84
	.uleb128 0x2
	.byte	0x8e
	.uleb128 0x1
	.byte	0x4
	.4byte	.LCFI126-.LCFI125
	.byte	0xe
	.uleb128 0x10
	.byte	0x4
	.4byte	.LCFI127-.LCFI126
	.byte	0xe
	.uleb128 0x8
	.align	2
.LEFDE88:
.LSFDE90:
	.4byte	.LEFDE90-.LASFDE90
.LASFDE90:
	.4byte	.Lframe0
	.4byte	.LFB160
	.4byte	.LFE160-.LFB160
	.byte	0x4
	.4byte	.LCFI128-.LFB160
	.byte	0xe
	.uleb128 0x4
	.byte	0x8e
	.uleb128 0x1
	.byte	0x4
	.4byte	.LCFI129-.LCFI128
	.byte	0xe
	.uleb128 0x10
	.byte	0x4
	.4byte	.LCFI130-.LCFI129
	.byte	0xe
	.uleb128 0x4
	.align	2
.LEFDE90:
.LSFDE92:
	.4byte	.LEFDE92-.LASFDE92
.LASFDE92:
	.4byte	.Lframe0
	.4byte	.LFB161
	.4byte	.LFE161-.LFB161
	.align	2
.LEFDE92:
.LSFDE94:
	.4byte	.LEFDE94-.LASFDE94
.LASFDE94:
	.4byte	.Lframe0
	.4byte	.LFB162
	.4byte	.LFE162-.LFB162
	.byte	0x4
	.4byte	.LCFI131-.LFB162
	.byte	0xe
	.uleb128 0x8
	.byte	0x4
	.4byte	.LCFI132-.LCFI131
	.byte	0xe
	.uleb128 0
	.align	2
.LEFDE94:
.LSFDE96:
	.4byte	.LEFDE96-.LASFDE96
.LASFDE96:
	.4byte	.Lframe0
	.4byte	.LFB163
	.4byte	.LFE163-.LFB163
	.byte	0x4
	.4byte	.LCFI133-.LFB163
	.byte	0xe
	.uleb128 0x8
	.byte	0x4
	.4byte	.LCFI134-.LCFI133
	.byte	0xe
	.uleb128 0
	.align	2
.LEFDE96:
.LSFDE98:
	.4byte	.LEFDE98-.LASFDE98
.LASFDE98:
	.4byte	.Lframe0
	.4byte	.LFB164
	.4byte	.LFE164-.LFB164
	.byte	0x4
	.4byte	.LCFI135-.LFB164
	.byte	0xe
	.uleb128 0x8
	.byte	0x4
	.4byte	.LCFI136-.LCFI135
	.byte	0xe
	.uleb128 0
	.align	2
.LEFDE98:
.LSFDE100:
	.4byte	.LEFDE100-.LASFDE100
.LASFDE100:
	.4byte	.Lframe0
	.4byte	.LFB165
	.4byte	.LFE165-.LFB165
	.byte	0x4
	.4byte	.LCFI137-.LFB165
	.byte	0xe
	.uleb128 0x8
	.byte	0x4
	.4byte	.LCFI138-.LCFI137
	.byte	0xe
	.uleb128 0
	.align	2
.LEFDE100:
.LSFDE102:
	.4byte	.LEFDE102-.LASFDE102
.LASFDE102:
	.4byte	.Lframe0
	.4byte	.LFB166
	.4byte	.LFE166-.LFB166
	.byte	0x4
	.4byte	.LCFI139-.LFB166
	.byte	0xe
	.uleb128 0x8
	.byte	0x84
	.uleb128 0x2
	.byte	0x8e
	.uleb128 0x1
	.byte	0x4
	.4byte	.LCFI140-.LCFI139
	.byte	0xe
	.uleb128 0x18
	.byte	0x4
	.4byte	.LCFI141-.LCFI140
	.byte	0xe
	.uleb128 0x8
	.align	2
.LEFDE102:
.LSFDE104:
	.4byte	.LEFDE104-.LASFDE104
.LASFDE104:
	.4byte	.Lframe0
	.4byte	.LFB167
	.4byte	.LFE167-.LFB167
	.byte	0x4
	.4byte	.LCFI142-.LFB167
	.byte	0xe
	.uleb128 0x4
	.byte	0x8e
	.uleb128 0x1
	.byte	0x4
	.4byte	.LCFI143-.LCFI142
	.byte	0xe
	.uleb128 0x40
	.byte	0x4
	.4byte	.LCFI144-.LCFI143
	.byte	0xe
	.uleb128 0x4
	.align	2
.LEFDE104:
.LSFDE106:
	.4byte	.LEFDE106-.LASFDE106
.LASFDE106:
	.4byte	.Lframe0
	.4byte	.LFB168
	.4byte	.LFE168-.LFB168
	.byte	0x4
	.4byte	.LCFI145-.LFB168
	.byte	0xe
	.uleb128 0x8
	.byte	0x4
	.4byte	.LCFI146-.LCFI145
	.byte	0xe
	.uleb128 0
	.align	2
.LEFDE106:
.LSFDE108:
	.4byte	.LEFDE108-.LASFDE108
.LASFDE108:
	.4byte	.Lframe0
	.4byte	.LFB169
	.4byte	.LFE169-.LFB169
	.byte	0x4
	.4byte	.LCFI147-.LFB169
	.byte	0xe
	.uleb128 0x4
	.byte	0x8e
	.uleb128 0x1
	.byte	0x4
	.4byte	.LCFI148-.LCFI147
	.byte	0xe
	.uleb128 0x10
	.byte	0x4
	.4byte	.LCFI149-.LCFI148
	.byte	0xe
	.uleb128 0x4
	.align	2
.LEFDE108:
.LSFDE110:
	.4byte	.LEFDE110-.LASFDE110
.LASFDE110:
	.4byte	.Lframe0
	.4byte	.LFB170
	.4byte	.LFE170-.LFB170
	.align	2
.LEFDE110:
.LSFDE112:
	.4byte	.LEFDE112-.LASFDE112
.LASFDE112:
	.4byte	.Lframe0
	.4byte	.LFB171
	.4byte	.LFE171-.LFB171
	.byte	0x4
	.4byte	.LCFI150-.LFB171
	.byte	0xe
	.uleb128 0x8
	.byte	0x4
	.4byte	.LCFI151-.LCFI150
	.byte	0xe
	.uleb128 0
	.align	2
.LEFDE112:
.LSFDE114:
	.4byte	.LEFDE114-.LASFDE114
.LASFDE114:
	.4byte	.Lframe0
	.4byte	.LFB172
	.4byte	.LFE172-.LFB172
	.byte	0x4
	.4byte	.LCFI152-.LFB172
	.byte	0xe
	.uleb128 0x8
	.byte	0x4
	.4byte	.LCFI153-.LCFI152
	.byte	0xe
	.uleb128 0
	.align	2
.LEFDE114:
.LSFDE116:
	.4byte	.LEFDE116-.LASFDE116
.LASFDE116:
	.4byte	.Lframe0
	.4byte	.LFB173
	.4byte	.LFE173-.LFB173
	.byte	0x4
	.4byte	.LCFI154-.LFB173
	.byte	0xe
	.uleb128 0x4
	.byte	0x8e
	.uleb128 0x1
	.byte	0x4
	.4byte	.LCFI155-.LCFI154
	.byte	0xe
	.uleb128 0x28
	.byte	0x4
	.4byte	.LCFI156-.LCFI155
	.byte	0xe
	.uleb128 0x4
	.align	2
.LEFDE116:
.LSFDE118:
	.4byte	.LEFDE118-.LASFDE118
.LASFDE118:
	.4byte	.Lframe0
	.4byte	.LFB174
	.4byte	.LFE174-.LFB174
	.byte	0x4
	.4byte	.LCFI157-.LFB174
	.byte	0xe
	.uleb128 0x4
	.byte	0x8e
	.uleb128 0x1
	.byte	0x4
	.4byte	.LCFI158-.LCFI157
	.byte	0xe
	.uleb128 0x20
	.byte	0x4
	.4byte	.LCFI159-.LCFI158
	.byte	0xe
	.uleb128 0x4
	.align	2
.LEFDE118:
.LSFDE120:
	.4byte	.LEFDE120-.LASFDE120
.LASFDE120:
	.4byte	.Lframe0
	.4byte	.LFB175
	.4byte	.LFE175-.LFB175
	.byte	0x4
	.4byte	.LCFI160-.LFB175
	.byte	0xe
	.uleb128 0x4
	.byte	0x8e
	.uleb128 0x1
	.byte	0x4
	.4byte	.LCFI161-.LCFI160
	.byte	0xe
	.uleb128 0x10
	.byte	0x4
	.4byte	.LCFI162-.LCFI161
	.byte	0xe
	.uleb128 0x4
	.align	2
.LEFDE120:
.LSFDE122:
	.4byte	.LEFDE122-.LASFDE122
.LASFDE122:
	.4byte	.Lframe0
	.4byte	.LFB176
	.4byte	.LFE176-.LFB176
	.byte	0x4
	.4byte	.LCFI163-.LFB176
	.byte	0xe
	.uleb128 0x4
	.byte	0x8e
	.uleb128 0x1
	.byte	0x4
	.4byte	.LCFI164-.LCFI163
	.byte	0xe
	.uleb128 0x10
	.byte	0x4
	.4byte	.LCFI165-.LCFI164
	.byte	0xe
	.uleb128 0x4
	.align	2
.LEFDE122:
.LSFDE124:
	.4byte	.LEFDE124-.LASFDE124
.LASFDE124:
	.4byte	.Lframe0
	.4byte	.LFB177
	.4byte	.LFE177-.LFB177
	.byte	0x4
	.4byte	.LCFI166-.LFB177
	.byte	0xe
	.uleb128 0x4
	.byte	0x8e
	.uleb128 0x1
	.byte	0x4
	.4byte	.LCFI167-.LCFI166
	.byte	0xe
	.uleb128 0x10
	.byte	0x4
	.4byte	.LCFI168-.LCFI167
	.byte	0xe
	.uleb128 0x4
	.align	2
.LEFDE124:
.LSFDE126:
	.4byte	.LEFDE126-.LASFDE126
.LASFDE126:
	.4byte	.Lframe0
	.4byte	.LFB178
	.4byte	.LFE178-.LFB178
	.align	2
.LEFDE126:
.LSFDE128:
	.4byte	.LEFDE128-.LASFDE128
.LASFDE128:
	.4byte	.Lframe0
	.4byte	.LFB179
	.4byte	.LFE179-.LFB179
	.byte	0x4
	.4byte	.LCFI169-.LFB179
	.byte	0xe
	.uleb128 0x8
	.byte	0x4
	.4byte	.LCFI170-.LCFI169
	.byte	0xe
	.uleb128 0
	.align	2
.LEFDE128:
.LSFDE130:
	.4byte	.LEFDE130-.LASFDE130
.LASFDE130:
	.4byte	.Lframe0
	.4byte	.LFB180
	.4byte	.LFE180-.LFB180
	.byte	0x4
	.4byte	.LCFI171-.LFB180
	.byte	0xe
	.uleb128 0x8
	.byte	0x4
	.4byte	.LCFI172-.LCFI171
	.byte	0xe
	.uleb128 0
	.align	2
.LEFDE130:
.LSFDE132:
	.4byte	.LEFDE132-.LASFDE132
.LASFDE132:
	.4byte	.Lframe0
	.4byte	.LFB181
	.4byte	.LFE181-.LFB181
	.byte	0x4
	.4byte	.LCFI173-.LFB181
	.byte	0xe
	.uleb128 0x4
	.byte	0x8e
	.uleb128 0x1
	.byte	0x4
	.4byte	.LCFI174-.LCFI173
	.byte	0xe
	.uleb128 0x10
	.byte	0x4
	.4byte	.LCFI175-.LCFI174
	.byte	0xe
	.uleb128 0x4
	.align	2
.LEFDE132:
.LSFDE134:
	.4byte	.LEFDE134-.LASFDE134
.LASFDE134:
	.4byte	.Lframe0
	.4byte	.LFB182
	.4byte	.LFE182-.LFB182
	.byte	0x4
	.4byte	.LCFI176-.LFB182
	.byte	0xe
	.uleb128 0x4
	.byte	0x8e
	.uleb128 0x1
	.byte	0x4
	.4byte	.LCFI177-.LCFI176
	.byte	0xe
	.uleb128 0x10
	.byte	0x4
	.4byte	.LCFI178-.LCFI177
	.byte	0xe
	.uleb128 0x4
	.align	2
.LEFDE134:
.LSFDE136:
	.4byte	.LEFDE136-.LASFDE136
.LASFDE136:
	.4byte	.Lframe0
	.4byte	.LFB183
	.4byte	.LFE183-.LFB183
	.byte	0x4
	.4byte	.LCFI179-.LFB183
	.byte	0xe
	.uleb128 0x8
	.byte	0x83
	.uleb128 0x2
	.byte	0x8e
	.uleb128 0x1
	.align	2
.LEFDE136:
.LSFDE138:
	.4byte	.LEFDE138-.LASFDE138
.LASFDE138:
	.4byte	.Lframe0
	.4byte	.LFB184
	.4byte	.LFE184-.LFB184
	.byte	0x4
	.4byte	.LCFI180-.LFB184
	.byte	0xe
	.uleb128 0x4
	.byte	0x8e
	.uleb128 0x1
	.byte	0x4
	.4byte	.LCFI181-.LCFI180
	.byte	0xe
	.uleb128 0x48
	.byte	0x4
	.4byte	.LCFI182-.LCFI181
	.byte	0xe
	.uleb128 0x4
	.align	2
.LEFDE138:
.LSFDE140:
	.4byte	.LEFDE140-.LASFDE140
.LASFDE140:
	.4byte	.Lframe0
	.4byte	.LFB185
	.4byte	.LFE185-.LFB185
	.byte	0x4
	.4byte	.LCFI183-.LFB185
	.byte	0xe
	.uleb128 0x8
	.byte	0x84
	.uleb128 0x2
	.byte	0x8e
	.uleb128 0x1
	.byte	0x4
	.4byte	.LCFI184-.LCFI183
	.byte	0xe
	.uleb128 0x10
	.byte	0x4
	.4byte	.LCFI185-.LCFI184
	.byte	0xe
	.uleb128 0x8
	.align	2
.LEFDE140:
.LSFDE142:
	.4byte	.LEFDE142-.LASFDE142
.LASFDE142:
	.4byte	.Lframe0
	.4byte	.LFB186
	.4byte	.LFE186-.LFB186
	.align	2
.LEFDE142:
.LSFDE144:
	.4byte	.LEFDE144-.LASFDE144
.LASFDE144:
	.4byte	.Lframe0
	.4byte	.LFB187
	.4byte	.LFE187-.LFB187
	.byte	0x4
	.4byte	.LCFI186-.LFB187
	.byte	0xe
	.uleb128 0x8
	.byte	0x83
	.uleb128 0x2
	.byte	0x8e
	.uleb128 0x1
	.align	2
.LEFDE144:
	.text
.Letext0:
	.file 3 "C:/Program Files/SEGGER/SEGGER Embedded Studio for ARM 6.30/include/stdint.h"
	.file 4 "C:/Program Files/SEGGER/SEGGER Embedded Studio for ARM 6.30/include/string.h"
	.file 5 "../../bsp/boards/nrf52840_dk/board_info.h"
	.file 6 "../../inc/opendefs.h"
	.file 7 "../../drivers/common/opentimers.h"
	.file 8 "../../openstack/02b-MAChigh/schedule.h"
	.file 9 "C:\\Users\\16603\\Desktop\\HKUSTGZ\\IOTA5109-WSN\\openwsnProj\\mywsn\\openstack\\02a-MAClow\\IEEE802154E.h"
	.file 10 "../../bsp/boards/radio.h"
	.file 11 "C:\\Users\\16603\\Desktop\\HKUSTGZ\\IOTA5109-WSN\\openwsnProj\\mywsn\\openstack\\02a-MAClow\\IEEE802154.h"
	.file 12 "../../openstack/cross-layers/idmanager.h"
	.file 13 "../../drivers/common/openserial.h"
	.file 14 "../../kernel/scheduler.h"
	.file 15 "../../openstack/03b-IPv6/icmpv6rpl.h"
	.file 16 "../../bsp/boards/debugpins.h"
	.file 17 "../../openstack/02b-MAChigh/sixtop.h"
	.file 18 "../../bsp/boards/leds.h"
	.file 19 "../../openstack/cross-layers/packetfunctions.h"
	.file 20 "C:\\Users\\16603\\Desktop\\HKUSTGZ\\IOTA5109-WSN\\openwsnProj\\mywsn\\openstack\\02a-MAClow\\IEEE802154_security.h"
	.file 21 "../../openstack/cross-layers/openqueue.h"
	.file 22 "../../openstack/02b-MAChigh/msf.h"
	.file 23 "../../openstack/cross-layers/openrandom.h"
	.file 24 "../../bsp/boards/sctimer.h"