	.cpu cortex-m4
	.arch armv7e-m
	.fpu fpv4-sp-d16
	.eabi_attribute 27, 1
	.eabi_attribute 28, 1
	.eabi_attribute 20, 1
	.eabi_attribute 21, 1
	.eabi_attribute 23, 3
	.eabi_attribute 24, 1
	.eabi_attribute 25, 1
	.eabi_attribute 26, 1
	.eabi_attribute 30, 6
	.eabi_attribute 34, 1
	.eabi_attribute 38, 1
	.eabi_attribute 18, 4
	.file	"iphc.c"
	.text
.Ltext0:
	.section	.rodata.rreg_uriquery,"a"
	.align	2
	.type	rreg_uriquery, %object
	.size	rreg_uriquery, 6
rreg_uriquery:
	.ascii	"h=ucb\000"
	.section	.rodata.infoBoardname,"a"
	.align	2
	.type	infoBoardname, %object
	.size	infoBoardname, 9
infoBoardname:
	.ascii	"nRF52840\000"
	.section	.rodata.infouCName,"a"
	.align	2
	.type	infouCName, %object
	.size	infouCName, 9
infouCName:
	.ascii	"nRF52840\000"
	.section	.rodata.infoRadioName,"a"
	.align	2
	.type	infoRadioName, %object
	.size	infoRadioName, 13
infoRadioName:
	.ascii	"nRF52840 SoC\000"
	.section	.rodata.infoStackName,"a"
	.align	2
	.type	infoStackName, %object
	.size	infoStackName, 9
infoStackName:
	.ascii	"OpenWSN \000"
	.section	.rodata.linklocalprefix,"a"
	.align	2
	.type	linklocalprefix, %object
	.size	linklocalprefix, 8
linklocalprefix:
	.ascii	"\376\200\000\000\000\000\000\000"
	.section	.rodata.chTemplate_default,"a"
	.align	2
	.type	chTemplate_default, %object
	.size	chTemplate_default, 16
chTemplate_default:
	.ascii	"\005\006\014\007\017\004\016\013\010\000\001\002\015"
	.ascii	"\003\011\012"
	.section	.rodata.ebIEsBytestream,"a"
	.align	2
	.type	ebIEsBytestream, %object
	.size	ebIEsBytestream, 28
ebIEsBytestream:
	.ascii	"\032\210\006\032\000\000\000\000\000\000\001\034\000"
	.ascii	"\001\310\000\012\033\001\000e\000\001\000\000\000\000"
	.ascii	"\017"
	.section	.rodata.all_routers_multicast,"a"
	.align	2
	.type	all_routers_multicast, %object
	.size	all_routers_multicast, 16
all_routers_multicast:
	.ascii	"\377\002\000\000\000\000\000\000\000\000\000\000\000"
	.ascii	"\000\000\032"
	.section	.rodata.dagroot_mac64b,"a"
	.align	2
	.type	dagroot_mac64b, %object
	.size	dagroot_mac64b, 9
dagroot_mac64b:
	.ascii	"\002\000\000\000\000\000\000\000\001"
	.section	.text.iphc_init,"ax",%progbits
	.align	1
	.global	iphc_init
	.syntax unified
	.thumb
	.thumb_func
	.type	iphc_init, %function
iphc_init:
.LFB115:
	.file 1 "C:\\Users\\16603\\Desktop\\HKUSTGZ\\IOTA5109-WSN\\openwsnProj\\mywsn\\openstack\\03a-IPHC\\iphc.c"
	.loc 1 49 22
	@ args = 0, pretend = 0, frame = 0
	@ frame_needed = 0, uses_anonymous_args = 0
	@ link register save eliminated.
	.loc 1 50 1
	nop
	bx	lr
.LFE115:
	.size	iphc_init, .-iphc_init
	.section	.text.iphc_sendFromForwarding,"ax",%progbits
	.align	1
	.global	iphc_sendFromForwarding
	.syntax unified
	.thumb
	.thumb_func
	.type	iphc_sendFromForwarding, %function
iphc_sendFromForwarding:
.LFB116:
	.loc 1 65 3
	@ args = 16, pretend = 0, frame = 120
	@ frame_needed = 0, uses_anonymous_args = 0
	push	{lr}
.LCFI0:
	sub	sp, sp, #132
.LCFI1:
	str	r0, [sp, #20]
	str	r1, [sp, #16]
	str	r2, [sp, #12]
	str	r3, [sp, #8]
	.loc 1 73 8
	ldr	r3, [sp, #20]
	.loc 1 73 16
	movs	r2, #18
	strb	r2, [r3, #1]
	.loc 1 76 9
	bl	idmanager_getIsDAGroot
	mov	r3, r0
	.loc 1 76 8
	cmp	r3, #1
	bne	.L3
	.loc 1 77 52 discriminator 1
	ldr	r3, [sp, #20]
	.loc 1 77 9 discriminator 1
	adds	r3, r3, #25
	mov	r0, r3
	bl	packetfunctions_isAllRoutersMulticast
	mov	r3, r0
	.loc 1 76 42 discriminator 1
	cmp	r3, #0
	bne	.L3
	.loc 1 78 9
	movs	r3, #0
	str	r3, [sp]
	movs	r3, #0
	movs	r2, #31
	movs	r1, #18
	movs	r0, #1
	bl	openserial_printLog
	.loc 1 79 16
	movs	r3, #1
	b	.L30
.L3:
	.loc 1 83 31
	ldr	r3, [sp, #16]
	ldrb	r3, [r3, #30]	@ zero_extendqisi2
	.loc 1 83 8
	cmp	r3, #0
	beq	.L5
	.loc 1 85 30
	ldr	r3, [sp, #16]
	ldrb	r3, [r3, #28]	@ zero_extendqisi2
	.loc 1 85 12
	cmp	r3, #0
	bne	.L6
	.loc 1 86 13
	movs	r3, #0
	str	r3, [sp]
	movs	r3, #0
	movs	r2, #20
	movs	r1, #18
	movs	r0, #2
	bl	openserial_printLog
	.loc 1 87 20
	movs	r3, #1
	b	.L30
.L6:
	.loc 1 90 30
	ldr	r3, [sp, #16]
	ldrb	r3, [r3, #28]	@ zero_extendqisi2
	.loc 1 90 41
	subs	r3, r3, #1
	uxtb	r2, r3
	ldr	r3, [sp, #16]
	strb	r2, [r3, #28]
	b	.L7
.L5:
	.loc 1 93 30
	ldr	r3, [sp, #12]
	ldrb	r3, [r3, #28]	@ zero_extendqisi2
	.loc 1 93 12
	cmp	r3, #0
	bne	.L8
	.loc 1 94 13
	movs	r3, #0
	str	r3, [sp]
	movs	r3, #0
	movs	r2, #20
	movs	r1, #18
	movs	r0, #2
	bl	openserial_printLog
	.loc 1 95 20
	movs	r3, #1
	b	.L30
.L8:
	.loc 1 98 30
	ldr	r3, [sp, #12]
	ldrb	r3, [r3, #28]	@ zero_extendqisi2
	.loc 1 98 41
	subs	r3, r3, #1
	uxtb	r2, r3
	ldr	r3, [sp, #12]
	strb	r2, [r3, #28]
.L7:
	.loc 1 102 41
	ldr	r3, [sp, #20]
	.loc 1 102 5
	adds	r3, r3, #25
	add	r2, sp, #88
	add	r1, sp, #108
	mov	r0, r3
	bl	packetfunctions_ip128bToMac64b
	.loc 1 104 41
	ldr	r3, [sp, #20]
	.loc 1 104 5
	adds	r3, r3, #42
	add	r2, sp, #48
	add	r1, sp, #68
	mov	r0, r3
	bl	packetfunctions_ip128bToMac64b
	.loc 1 106 9
	add	r2, sp, #68
	add	r3, sp, #108
	mov	r1, r2
	mov	r0, r3
	bl	packetfunctions_sameAddress
	mov	r3, r0
	.loc 1 106 8
	cmp	r3, #0
	beq	.L9
	.loc 1 107 13
	movs	r3, #1
	strb	r3, [sp, #127]
	b	.L10
.L9:
	.loc 1 111 55
	ldr	r3, [sp, #20]
	.loc 1 111 13
	adds	r3, r3, #25
	mov	r0, r3
	bl	packetfunctions_isBroadcastMulticast
	mov	r3, r0
	.loc 1 111 12
	cmp	r3, #0
	bne	.L11
	.loc 1 113 17
	movs	r3, #0
	strb	r3, [sp, #127]
	b	.L10
.L11:
	.loc 1 116 17
	movs	r3, #3
	strb	r3, [sp, #127]
.L10:
	.loc 1 121 9
	add	r2, sp, #68
	add	r3, sp, #108
	mov	r1, r2
	mov	r0, r3
	bl	packetfunctions_sameAddress
	mov	r3, r0
	.loc 1 121 8
	cmp	r3, #0
	bne	.L12
	.loc 1 124 55
	ldr	r3, [sp, #20]
	.loc 1 124 13
	adds	r3, r3, #25
	mov	r0, r3
	bl	packetfunctions_isBroadcastMulticast
	mov	r3, r0
	.loc 1 124 12
	cmp	r3, #0
	bne	.L12
	.loc 1 125 13
	add	r3, sp, #28
	movs	r2, #17
	movs	r1, #0
	mov	r0, r3
	bl	memset
	.loc 1 126 13
	movs	r0, #5
	bl	idmanager_getMyID
	add	r3, sp, #28
	mov	r2, r3
	ldr	r1, .L31
	bl	packetfunctions_mac64bToIp128b
	.loc 1 130 51
	ldr	r3, [sp, #16]
	ldrb	r3, [r3, #30]	@ zero_extendqisi2
	.loc 1 128 16
	cmp	r3, #0
	bne	.L13
	.loc 1 131 62
	ldr	r3, [sp, #20]
	.loc 1 131 29
	adds	r3, r3, #42
	add	r2, sp, #28
	mov	r1, r2
	mov	r0, r3
	bl	packetfunctions_sameAddress
	mov	r3, r0
	.loc 1 130 70
	cmp	r3, #0
	bne	.L14
.L13:
	.loc 1 134 51
	ldr	r3, [sp, #16]
	ldrb	r3, [r3, #30]	@ zero_extendqisi2
	.loc 1 132 23
	cmp	r3, #0
	beq	.L15
	.loc 1 135 29
	ldr	r3, [sp, #16]
	adds	r3, r3, #30
	add	r2, sp, #28
	mov	r1, r2
	mov	r0, r3
	bl	packetfunctions_sameAddress
	mov	r3, r0
	.loc 1 134 70
	cmp	r3, #0
	beq	.L15
.L14:
	.loc 1 139 21
	add	r3, sp, #20
	movs	r1, #1
	mov	r0, r3
	bl	packetfunctions_reserveHeader
	mov	r3, r0
	.loc 1 139 20
	cmp	r3, #1
	bne	.L16
	.loc 1 140 28
	movs	r3, #1
	b	.L30
.L16:
	.loc 1 142 35
	ldr	r3, [sp, #20]
	ldr	r3, [r3, #4]
	.loc 1 142 66
	ldr	r2, [sp, #16]
	ldrb	r2, [r2, #28]	@ zero_extendqisi2
	.loc 1 142 47
	strb	r2, [r3]
	.loc 1 144 21
	add	r3, sp, #20
	movs	r1, #1
	mov	r0, r3
	bl	packetfunctions_reserveHeader
	mov	r3, r0
	.loc 1 144 20
	cmp	r3, #1
	bne	.L17
	.loc 1 145 28
	movs	r3, #1
	b	.L30
.L17:
	.loc 1 147 35
	ldr	r3, [sp, #20]
	ldr	r3, [r3, #4]
	.loc 1 147 47
	movs	r2, #6
	strb	r2, [r3]
	.loc 1 149 21
	add	r3, sp, #20
	movs	r1, #1
	mov	r0, r3
	bl	packetfunctions_reserveHeader
	mov	r3, r0
	.loc 1 149 20
	cmp	r3, #1
	bne	.L18
	.loc 1 150 28
	movs	r3, #1
	b	.L30
.L18:
	.loc 1 152 35
	ldr	r3, [sp, #20]
	ldr	r3, [r3, #4]
	.loc 1 152 47
	movs	r2, #161
	strb	r2, [r3]
	b	.L12
.L15:
	.loc 1 154 20
	ldrb	r3, [sp, #127]	@ zero_extendqisi2
	cmp	r3, #0
	bne	.L12
	.loc 1 156 65
	ldr	r3, [sp, #20]
	.loc 1 156 25
	add	r1, r3, #42
	add	r3, sp, #20
	movs	r2, #0
	mov	r0, r3
	bl	packetfunctions_writeAddress
	mov	r3, r0
	.loc 1 156 24
	cmp	r3, #1
	bne	.L20
	.loc 1 157 32
	movs	r3, #1
	b	.L30
.L20:
	.loc 1 160 25
	add	r3, sp, #20
	movs	r1, #1
	mov	r0, r3
	bl	packetfunctions_reserveHeader
	mov	r3, r0
	.loc 1 160 24
	cmp	r3, #1
	bne	.L21
	.loc 1 161 32
	movs	r3, #1
	b	.L30
.L21:
	.loc 1 163 39
	ldr	r3, [sp, #20]
	ldr	r3, [r3, #4]
	.loc 1 163 70
	ldr	r2, [sp, #16]
	ldrb	r2, [r2, #28]	@ zero_extendqisi2
	.loc 1 163 51
	strb	r2, [r3]
	.loc 1 165 25
	add	r3, sp, #20
	movs	r1, #1
	mov	r0, r3
	bl	packetfunctions_reserveHeader
	mov	r3, r0
	.loc 1 165 24
	cmp	r3, #1
	bne	.L22
	.loc 1 166 32
	movs	r3, #1
	b	.L30
.L22:
	.loc 1 168 39
	ldr	r3, [sp, #20]
	ldr	r3, [r3, #4]
	.loc 1 168 51
	movs	r2, #6
	strb	r2, [r3]
	.loc 1 170 25
	add	r3, sp, #20
	movs	r1, #1
	mov	r0, r3
	bl	packetfunctions_reserveHeader
	mov	r3, r0
	.loc 1 170 24
	cmp	r3, #1
	bne	.L23
	.loc 1 171 32
	movs	r3, #1
	b	.L30
.L23:
	.loc 1 173 39
	ldr	r3, [sp, #20]
	ldr	r3, [r3, #4]
	.loc 1 173 51
	movs	r2, #177
	strb	r2, [r3]
.L12:
	.loc 1 197 23
	ldr	r3, [sp, #8]
	ldrb	r3, [r3]	@ zero_extendqisi2
	.loc 1 196 8
	cmp	r3, #99
	bne	.L24
	.loc 1 198 55
	ldr	r3, [sp, #20]
	.loc 1 198 13
	adds	r3, r3, #25
	mov	r0, r3
	bl	packetfunctions_isBroadcastMulticast
	mov	r3, r0
	.loc 1 197 71
	cmp	r3, #0
	bne	.L24
	.loc 1 200 53
	ldr	r3, [sp, #20]
	.loc 1 200 13
	ldrb	r1, [r3, #11]	@ zero_extendqisi2
	add	r3, sp, #20
	ldr	r2, [sp, #8]
	mov	r0, r3
	bl	iphc_prependIPv6HopByHopHeader
	mov	r3, r0
	.loc 1 200 12
	cmp	r3, #1
	bne	.L24
	.loc 1 201 20
	movs	r3, #1
	b	.L30
.L24:
	.loc 1 206 8
	ldrb	r3, [sp, #144]	@ zero_extendqisi2
	cmp	r3, #0
	beq	.L25
	.loc 1 207 13
	ldrb	r3, [sp, #144]	@ zero_extendqisi2
	uxth	r2, r3
	add	r3, sp, #20
	mov	r1, r2
	mov	r0, r3
	bl	packetfunctions_reserveHeader
	mov	r3, r0
	.loc 1 207 12
	cmp	r3, #1
	bne	.L26
	.loc 1 208 20
	movs	r3, #1
	b	.L30
.L26:
	.loc 1 210 20
	ldr	r3, [sp, #20]
	.loc 1 210 16
	ldr	r3, [r3, #4]
	.loc 1 210 9
	ldrb	r2, [sp, #144]	@ zero_extendqisi2
	ldr	r1, [sp, #140]
	mov	r0, r3
	bl	memcpy
.L25:
	.loc 1 215 32
	ldr	r3, [sp, #20]
	ldr	r3, [r3, #4]
	.loc 1 215 14
	ldrb	r3, [r3]	@ zero_extendqisi2
	.loc 1 215 44
	and	r3, r3, #224
	.loc 1 214 8
	cmp	r3, #128
	beq	.L27
	.loc 1 216 32
	ldr	r3, [sp, #20]
	ldr	r3, [r3, #4]
	.loc 1 216 14
	ldrb	r3, [r3]	@ zero_extendqisi2
	.loc 1 216 44
	and	r3, r3, #224
	.loc 1 215 83
	cmp	r3, #160
	bne	.L28
.L27:
	.loc 1 218 13
	add	r3, sp, #20
	movs	r1, #1
	mov	r0, r3
	bl	packetfunctions_reserveHeader
	mov	r3, r0
	.loc 1 218 12
	cmp	r3, #1
	bne	.L29
	.loc 1 219 20
	movs	r3, #1
	b	.L30
.L29:
	.loc 1 221 27
	ldr	r3, [sp, #20]
	ldr	r3, [r3, #4]
	.loc 1 221 39
	movs	r2, #241
	strb	r2, [r3]
.L28:
	.loc 1 227 12
	ldr	r3, [sp, #20]
	mov	r0, r3
	bl	sixtop_send
	mov	r3, r0
.L30:
	.loc 1 229 1 discriminator 1
	mov	r0, r3
	add	sp, sp, #132
.LCFI2:
	@ sp needed
	ldr	pc, [sp], #4
.L32:
	.align	2
.L31:
	.word	dagroot_mac64b
.LFE116:
	.size	iphc_sendFromForwarding, .-iphc_sendFromForwarding
	.section	.text.iphc_sendFromBridge,"ax",%progbits
	.align	1
	.global	iphc_sendFromBridge
	.syntax unified
	.thumb
	.thumb_func
	.type	iphc_sendFromBridge, %function
iphc_sendFromBridge:
.LFB117:
	.loc 1 232 54
	@ args = 0, pretend = 0, frame = 8
	@ frame_needed = 0, uses_anonymous_args = 0
	push	{lr}
.LCFI3:
	sub	sp, sp, #20
.LCFI4:
	str	r0, [sp, #12]
	.loc 1 233 16
	ldr	r3, [sp, #12]
	movs	r2, #18
	strb	r2, [r3, #1]
	.loc 1 235 9
	bl	idmanager_getIsDAGroot
	mov	r3, r0
	.loc 1 235 8
	cmp	r3, #0
	bne	.L34
	.loc 1 236 9
	movs	r3, #0
	str	r3, [sp]
	movs	r3, #1
	movs	r2, #31
	movs	r1, #18
	movs	r0, #1
	bl	openserial_printLog
	.loc 1 237 16
	movs	r3, #1
	b	.L35
.L34:
	.loc 1 241 12
	ldr	r0, [sp, #12]
	bl	sixtop_send
	mov	r3, r0
.L35:
	.loc 1 242 1
	mov	r0, r3
	add	sp, sp, #20
.LCFI5:
	@ sp needed
	ldr	pc, [sp], #4
.LFE117:
	.size	iphc_sendFromBridge, .-iphc_sendFromBridge
	.section	.text.iphc_sendDone,"ax",%progbits
	.align	1
	.global	iphc_sendDone
	.syntax unified
	.thumb
	.thumb_func
	.type	iphc_sendDone, %function
iphc_sendDone:
.LFB118:
	.loc 1 244 60
	@ args = 0, pretend = 0, frame = 8
	@ frame_needed = 0, uses_anonymous_args = 0
	push	{lr}
.LCFI6:
	sub	sp, sp, #12
.LCFI7:
	str	r0, [sp, #4]
	mov	r3, r1
	strb	r3, [sp, #3]
	.loc 1 245 16
	ldr	r3, [sp, #4]
	movs	r2, #18
	strb	r2, [r3, #1]
	.loc 1 246 12
	ldr	r3, [sp, #4]
	ldrb	r3, [r3]	@ zero_extendqisi2
	.loc 1 246 8
	cmp	r3, #17
	bne	.L37
	.loc 1 247 9
	ldrb	r3, [sp, #3]	@ zero_extendqisi2
	mov	r1, r3
	ldr	r0, [sp, #4]
	bl	openbridge_sendDone
	.loc 1 251 1
	b	.L39
.L37:
	.loc 1 249 9
	ldrb	r3, [sp, #3]	@ zero_extendqisi2
	mov	r1, r3
	ldr	r0, [sp, #4]
	bl	forwarding_sendDone
.L39:
	.loc 1 251 1
	nop
	add	sp, sp, #12
.LCFI8:
	@ sp needed
	ldr	pc, [sp], #4
.LFE118:
	.size	iphc_sendDone, .-iphc_sendDone
	.section	.text.iphc_receive,"ax",%progbits
	.align	1
	.global	iphc_receive
	.syntax unified
	.thumb
	.thumb_func
	.type	iphc_receive, %function
iphc_receive:
.LFB119:
	.loc 1 253 42
	@ args = 0, pretend = 0, frame = 160
	@ frame_needed = 0, uses_anonymous_args = 0
	push	{lr}
.LCFI9:
	sub	sp, sp, #164
.LCFI10:
	str	r0, [sp, #4]
	.loc 1 264 8
	ldr	r3, [sp, #4]
	.loc 1 264 16
	movs	r2, #18
	strb	r2, [r3, #1]
	.loc 1 266 5
	add	r3, sp, #88
	movs	r2, #68
	movs	r1, #0
	mov	r0, r3
	bl	memset
	.loc 1 267 5
	add	r3, sp, #20
	movs	r2, #68
	movs	r1, #0
	mov	r0, r3
	bl	memset
	.loc 1 268 5
	add	r3, sp, #12
	movs	r2, #5
	movs	r1, #0
	mov	r0, r3
	bl	memset
	.loc 1 275 9
	ldr	r0, [sp, #4]
	add	r3, sp, #19
	add	r2, sp, #20
	add	r1, sp, #88
	bl	iphc_retrieveIPv6Header
	mov	r3, r0
	.loc 1 275 8
	cmp	r3, #1
	bne	.L41
	.loc 1 276 9
	ldr	r3, [sp, #4]
	mov	r0, r3
	bl	openqueue_freePacketBuffer
	b	.L40
.L41:
	.loc 1 281 9
	bl	idmanager_getIsDAGroot
	mov	r3, r0
	.loc 1 281 8
	cmp	r3, #0
	beq	.L43
	.loc 1 281 46 discriminator 1
	add	r3, sp, #20
	adds	r3, r3, #47
	mov	r0, r3
	bl	packetfunctions_isBroadcastMulticast
	mov	r3, r0
	.loc 1 281 43 discriminator 1
	cmp	r3, #0
	beq	.L44
.L43:
	.loc 1 282 9
	ldrb	r3, [sp, #19]	@ zero_extendqisi2
	uxth	r2, r3
	add	r3, sp, #4
	mov	r1, r2
	mov	r0, r3
	bl	packetfunctions_tossHeader
	.loc 1 283 30
	ldrb	r3, [sp, #97]	@ zero_extendqisi2
	.loc 1 283 12
	cmp	r3, #0
	bne	.L45
	.loc 1 283 82 discriminator 1
	ldr	r3, [sp, #112]
	.loc 1 283 62 discriminator 1
	cmp	r3, #0
	beq	.L45
	.loc 1 285 26
	ldr	r3, [sp, #4]
	add	r2, sp, #12
	mov	r1, r2
	mov	r0, r3
	bl	iphc_retrieveIPv6HopByHopHeader
	mov	r3, r0
	strb	r3, [sp, #159]
	.loc 1 294 13
	ldrb	r3, [sp, #159]	@ zero_extendqisi2
	uxth	r2, r3
	add	r3, sp, #4
	mov	r1, r2
	mov	r0, r3
	bl	packetfunctions_tossHeader
.L45:
	.loc 1 298 9
	ldr	r0, [sp, #4]
	add	r3, sp, #12
	add	r2, sp, #20
	add	r1, sp, #88
	bl	forwarding_receive
	b	.L40
.L44:
	.loc 1 308 9
	ldr	r3, [sp, #4]
	mov	r0, r3
	bl	openbridge_receive
.L40:
	.loc 1 310 1
	add	sp, sp, #164
.LCFI11:
	@ sp needed
	ldr	pc, [sp], #4
.LFE119:
	.size	iphc_receive, .-iphc_receive
	.section	.text.iphc_prependIPv6Header,"ax",%progbits
	.align	1
	.global	iphc_prependIPv6Header
	.syntax unified
	.thumb
	.thumb_func
	.type	iphc_prependIPv6Header, %function
iphc_prependIPv6Header:
.LFB120:
	.loc 1 333 3
	@ args = 48, pretend = 0, frame = 24
	@ frame_needed = 0, uses_anonymous_args = 0
	push	{lr}
.LCFI12:
	sub	sp, sp, #36
.LCFI13:
	str	r0, [sp, #20]
	str	r2, [sp, #12]
	mov	r2, r3
	mov	r3, r1
	strb	r3, [sp, #19]
	mov	r3, r2
	strb	r3, [sp, #18]
	.loc 1 337 5
	ldrb	r3, [sp, #72]	@ zero_extendqisi2
	cmp	r3, #3
	bhi	.L48
	adr	r2, .L50
	ldr	pc, [r2, r3, lsl #2]
	.p2align 2
.L50:
	.word	.L53+1
	.word	.L52+1
	.word	.L51+1
	.word	.L49+1
	.p2align 1
.L49:
	.loc 1 339 16
	ldrb	r3, [sp, #64]	@ zero_extendqisi2
	cmp	r3, #1
	bne	.L102
	.loc 1 340 21
	movs	r1, #1
	ldr	r0, [sp, #20]
	bl	packetfunctions_reserveHeader
	mov	r3, r0
	.loc 1 340 20
	cmp	r3, #1
	bne	.L55
	.loc 1 341 28
	movs	r3, #1
	b	.L56
.L55:
	.loc 1 343 33
	ldr	r3, [sp, #20]
	ldr	r3, [r3]
	.loc 1 343 38
	ldr	r3, [r3, #4]
	.loc 1 343 73
	ldr	r2, [sp, #76]
	ldrb	r2, [r2, #16]	@ zero_extendqisi2
	.loc 1 343 50
	strb	r2, [r3]
	.loc 1 347 13
	b	.L102
.L51:
	.loc 1 349 16
	ldrb	r3, [sp, #64]	@ zero_extendqisi2
	cmp	r3, #1
	beq	.L103
	.loc 1 352 31
	ldr	r3, [sp, #76]
	ldrb	r3, [r3]	@ zero_extendqisi2
	.loc 1 352 20
	cmp	r3, #1
	beq	.L59
	.loc 1 353 21
	ldr	r3, [sp, #76]
	ldrb	r3, [r3]	@ zero_extendqisi2
	uxth	r3, r3
	movs	r2, #0
	str	r2, [sp]
	movs	r2, #75
	movs	r1, #18
	movs	r0, #1
	bl	openserial_printLog
	.loc 1 356 28
	movs	r3, #1
	b	.L56
.L59:
	.loc 1 358 21
	movs	r2, #0
	ldr	r1, [sp, #76]
	ldr	r0, [sp, #20]
	bl	packetfunctions_writeAddress
	mov	r3, r0
	.loc 1 358 20
	cmp	r3, #1
	bne	.L103
	.loc 1 359 28
	movs	r3, #1
	b	.L56
.L52:
	.loc 1 364 16
	ldrb	r3, [sp, #64]	@ zero_extendqisi2
	cmp	r3, #1
	beq	.L104
	.loc 1 367 31
	ldr	r3, [sp, #76]
	ldrb	r3, [r3]	@ zero_extendqisi2
	.loc 1 367 20
	cmp	r3, #2
	beq	.L61
	.loc 1 368 21
	ldr	r3, [sp, #76]
	ldrb	r3, [r3]	@ zero_extendqisi2
	uxth	r3, r3
	movs	r2, #1
	str	r2, [sp]
	movs	r2, #75
	movs	r1, #18
	movs	r0, #1
	bl	openserial_printLog
	.loc 1 371 28
	movs	r3, #1
	b	.L56
.L61:
	.loc 1 373 21
	movs	r2, #0
	ldr	r1, [sp, #76]
	ldr	r0, [sp, #20]
	bl	packetfunctions_writeAddress
	mov	r3, r0
	.loc 1 373 20
	cmp	r3, #1
	bne	.L104
	.loc 1 374 28
	movs	r3, #1
	b	.L56
.L53:
	.loc 1 379 16
	ldrb	r3, [sp, #64]	@ zero_extendqisi2
	cmp	r3, #1
	beq	.L105
	.loc 1 382 31
	ldr	r3, [sp, #76]
	ldrb	r3, [r3]	@ zero_extendqisi2
	.loc 1 382 20
	cmp	r3, #3
	beq	.L63
	.loc 1 383 21
	ldr	r3, [sp, #76]
	ldrb	r3, [r3]	@ zero_extendqisi2
	uxth	r3, r3
	movs	r2, #2
	str	r2, [sp]
	movs	r2, #75
	movs	r1, #18
	movs	r0, #1
	bl	openserial_printLog
	.loc 1 386 28
	movs	r3, #1
	b	.L56
.L63:
	.loc 1 388 21
	movs	r2, #0
	ldr	r1, [sp, #76]
	ldr	r0, [sp, #20]
	bl	packetfunctions_writeAddress
	mov	r3, r0
	.loc 1 388 20
	cmp	r3, #1
	bne	.L105
	.loc 1 389 28
	movs	r3, #1
	b	.L56
.L48:
	.loc 1 394 13
	ldrb	r3, [sp, #72]	@ zero_extendqisi2
	uxth	r3, r3
	str	r3, [sp]
	movs	r3, #0
	movs	r2, #16
	movs	r1, #18
	movs	r0, #1
	bl	openserial_printLog
	.loc 1 395 20
	movs	r3, #1
	b	.L56
.L102:
	.loc 1 347 13
	nop
	b	.L57
.L103:
	.loc 1 362 13
	nop
	b	.L57
.L104:
	.loc 1 377 13
	nop
	b	.L57
.L105:
	.loc 1 392 13
	nop
.L57:
	.loc 1 399 5
	ldrb	r3, [sp, #60]	@ zero_extendqisi2
	cmp	r3, #3
	bhi	.L64
	adr	r2, .L66
	ldr	pc, [r2, r3, lsl #2]
	.p2align 2
.L66:
	.word	.L69+1
	.word	.L68+1
	.word	.L67+1
	.word	.L106+1
	.p2align 1
.L67:
	.loc 1 403 16
	ldrb	r3, [sp, #84]	@ zero_extendqisi2
	cmp	r3, #2
	bne	.L71
	.loc 1 404 21
	movs	r0, #1
	bl	idmanager_getMyID
	mov	r3, r0
	movs	r2, #0
	mov	r1, r3
	ldr	r0, [sp, #20]
	bl	packetfunctions_writeAddress
	mov	r3, r0
	.loc 1 404 20
	cmp	r3, #1
	bne	.L71
	.loc 1 405 28
	movs	r3, #1
	b	.L56
.L71:
	.loc 1 408 16
	ldrb	r3, [sp, #84]	@ zero_extendqisi2
	cmp	r3, #1
	bne	.L107
	.loc 1 409 30
	ldr	r3, [sp, #80]
	ldrb	r3, [r3]	@ zero_extendqisi2
	.loc 1 409 20
	cmp	r3, #1
	beq	.L73
	.loc 1 410 21
	ldr	r3, [sp, #80]
	ldrb	r3, [r3]	@ zero_extendqisi2
	uxth	r3, r3
	movs	r2, #0
	str	r2, [sp]
	movs	r2, #75
	movs	r1, #18
	movs	r0, #1
	bl	openserial_printLog
	.loc 1 413 28
	movs	r3, #1
	b	.L56
.L73:
	.loc 1 415 21
	movs	r2, #0
	ldr	r1, [sp, #80]
	ldr	r0, [sp, #20]
	bl	packetfunctions_writeAddress
	mov	r3, r0
	.loc 1 415 20
	cmp	r3, #1
	bne	.L107
	.loc 1 416 28
	movs	r3, #1
	b	.L56
.L68:
	.loc 1 421 16
	ldrb	r3, [sp, #84]	@ zero_extendqisi2
	cmp	r3, #2
	bne	.L74
	.loc 1 422 21
	movs	r0, #2
	bl	idmanager_getMyID
	mov	r3, r0
	movs	r2, #0
	mov	r1, r3
	ldr	r0, [sp, #20]
	bl	packetfunctions_writeAddress
	mov	r3, r0
	.loc 1 422 20
	cmp	r3, #1
	bne	.L74
	.loc 1 423 28
	movs	r3, #1
	b	.L56
.L74:
	.loc 1 426 16
	ldrb	r3, [sp, #84]	@ zero_extendqisi2
	cmp	r3, #1
	bne	.L108
	.loc 1 427 30
	ldr	r3, [sp, #80]
	ldrb	r3, [r3]	@ zero_extendqisi2
	.loc 1 427 20
	cmp	r3, #2
	beq	.L76
	.loc 1 428 21
	ldr	r3, [sp, #80]
	ldrb	r3, [r3]	@ zero_extendqisi2
	uxth	r3, r3
	movs	r2, #1
	str	r2, [sp]
	movs	r2, #75
	movs	r1, #18
	movs	r0, #1
	bl	openserial_printLog
	.loc 1 431 28
	movs	r3, #1
	b	.L56
.L76:
	.loc 1 433 21
	movs	r2, #0
	ldr	r1, [sp, #80]
	ldr	r0, [sp, #20]
	bl	packetfunctions_writeAddress
	mov	r3, r0
	.loc 1 433 20
	cmp	r3, #1
	bne	.L108
	.loc 1 434 28
	movs	r3, #1
	b	.L56
.L69:
	.loc 1 439 16
	ldrb	r3, [sp, #84]	@ zero_extendqisi2
	cmp	r3, #2
	bne	.L77
	.loc 1 440 21
	movs	r0, #2
	bl	idmanager_getMyID
	mov	r3, r0
	movs	r2, #0
	mov	r1, r3
	ldr	r0, [sp, #20]
	bl	packetfunctions_writeAddress
	mov	r3, r0
	.loc 1 440 20
	cmp	r3, #1
	beq	.L78
	.loc 1 441 21 discriminator 1
	movs	r0, #5
	bl	idmanager_getMyID
	mov	r3, r0
	movs	r2, #0
	mov	r1, r3
	ldr	r0, [sp, #20]
	bl	packetfunctions_writeAddress
	mov	r3, r0
	.loc 1 440 111 discriminator 1
	cmp	r3, #1
	bne	.L77
.L78:
	.loc 1 442 28
	movs	r3, #1
	b	.L56
.L77:
	.loc 1 445 16
	ldrb	r3, [sp, #84]	@ zero_extendqisi2
	cmp	r3, #1
	bne	.L109
	.loc 1 446 30
	ldr	r3, [sp, #80]
	ldrb	r3, [r3]	@ zero_extendqisi2
	.loc 1 446 20
	cmp	r3, #3
	beq	.L80
	.loc 1 447 21
	ldr	r3, [sp, #80]
	ldrb	r3, [r3]	@ zero_extendqisi2
	uxth	r3, r3
	movs	r2, #2
	str	r2, [sp]
	movs	r2, #75
	movs	r1, #18
	movs	r0, #1
	bl	openserial_printLog
	.loc 1 450 28
	movs	r3, #1
	b	.L56
.L80:
	.loc 1 452 21
	movs	r2, #0
	ldr	r1, [sp, #80]
	ldr	r0, [sp, #20]
	bl	packetfunctions_writeAddress
	mov	r3, r0
	.loc 1 452 20
	cmp	r3, #1
	bne	.L109
	.loc 1 453 28
	movs	r3, #1
	b	.L56
.L64:
	.loc 1 458 13
	ldrb	r3, [sp, #60]	@ zero_extendqisi2
	uxth	r3, r3
	str	r3, [sp]
	movs	r3, #1
	movs	r2, #16
	movs	r1, #18
	movs	r0, #1
	bl	openserial_printLog
	.loc 1 459 20
	movs	r3, #1
	b	.L56
.L106:
	.loc 1 401 13
	nop
	b	.L70
.L107:
	.loc 1 419 13
	nop
	b	.L70
.L108:
	.loc 1 437 13
	nop
	b	.L70
.L109:
	.loc 1 456 13
	nop
.L70:
	.loc 1 463 5
	ldrb	r3, [sp, #44]	@ zero_extendqisi2
	cmp	r3, #0
	beq	.L81
	cmp	r3, #0
	blt	.L82
	subs	r3, r3, #1
	cmp	r3, #2
	bhi	.L82
	.loc 1 473 13
	b	.L85
.L81:
	.loc 1 465 17
	movs	r1, #1
	ldr	r0, [sp, #20]
	bl	packetfunctions_reserveHeader
	mov	r3, r0
	.loc 1 465 16
	cmp	r3, #1
	bne	.L84
	.loc 1 466 24
	movs	r3, #1
	b	.L56
.L84:
	.loc 1 468 29
	ldr	r3, [sp, #20]
	ldr	r3, [r3]
	.loc 1 468 34
	ldr	r3, [r3, #4]
	.loc 1 468 46
	ldrb	r2, [sp, #48]
	strb	r2, [r3]
	.loc 1 469 13
	b	.L85
.L82:
	.loc 1 475 13
	ldrb	r3, [sp, #44]	@ zero_extendqisi2
	uxth	r3, r3
	str	r3, [sp]
	movs	r3, #2
	movs	r2, #16
	movs	r1, #18
	movs	r0, #1
	bl	openserial_printLog
	.loc 1 476 20
	movs	r3, #1
	b	.L56
.L85:
	.loc 1 480 5
	ldrb	r3, [sp, #18]	@ zero_extendqisi2
	cmp	r3, #0
	beq	.L86
	cmp	r3, #1
	beq	.L110
	b	.L100
.L86:
	.loc 1 482 17
	movs	r1, #1
	ldr	r0, [sp, #20]
	bl	packetfunctions_reserveHeader
	mov	r3, r0
	.loc 1 482 16
	cmp	r3, #1
	bne	.L89
	.loc 1 483 24
	movs	r3, #1
	b	.L56
.L89:
	.loc 1 485 29
	ldr	r3, [sp, #20]
	ldr	r3, [r3]
	.loc 1 485 34
	ldr	r3, [r3, #4]
	.loc 1 485 46
	ldrb	r2, [sp, #40]
	strb	r2, [r3]
	.loc 1 486 13
	b	.L90
.L100:
	.loc 1 491 13
	ldrb	r3, [sp, #18]	@ zero_extendqisi2
	uxth	r3, r3
	str	r3, [sp]
	movs	r3, #3
	movs	r2, #16
	movs	r1, #18
	movs	r0, #1
	bl	openserial_printLog
	.loc 1 492 20
	movs	r3, #1
	b	.L56
.L110:
	.loc 1 489 13
	nop
.L90:
	.loc 1 496 5
	ldrb	r3, [sp, #19]	@ zero_extendqisi2
	cmp	r3, #1
	beq	.L91
	cmp	r3, #3
	beq	.L111
	b	.L101
.L91:
	.loc 1 498 17
	movs	r1, #1
	ldr	r0, [sp, #20]
	bl	packetfunctions_reserveHeader
	mov	r3, r0
	.loc 1 498 16
	cmp	r3, #1
	bne	.L94
	.loc 1 499 24
	movs	r3, #1
	b	.L56
.L94:
	.loc 1 501 29
	ldr	r3, [sp, #20]
	ldr	r3, [r3]
	.loc 1 501 34
	ldr	r3, [r3, #4]
	.loc 1 501 46
	ldr	r2, [sp, #12]
	uxtb	r2, r2
	strb	r2, [r3]
	.loc 1 502 17
	movs	r1, #1
	ldr	r0, [sp, #20]
	bl	packetfunctions_reserveHeader
	mov	r3, r0
	.loc 1 502 16
	cmp	r3, #1
	bne	.L95
	.loc 1 503 24
	movs	r3, #1
	b	.L56
.L95:
	.loc 1 505 90
	ldr	r3, [sp, #12]
	lsrs	r2, r3, #8
	.loc 1 505 29
	ldr	r3, [sp, #20]
	ldr	r3, [r3]
	.loc 1 505 34
	ldr	r3, [r3, #4]
	.loc 1 505 46
	uxtb	r2, r2
	strb	r2, [r3]
	.loc 1 506 17
	movs	r1, #1
	ldr	r0, [sp, #20]
	bl	packetfunctions_reserveHeader
	mov	r3, r0
	.loc 1 506 16
	cmp	r3, #1
	bne	.L96
	.loc 1 507 24
	movs	r3, #1
	b	.L56
.L96:
	.loc 1 509 90
	ldr	r3, [sp, #12]
	lsrs	r2, r3, #16
	.loc 1 509 29
	ldr	r3, [sp, #20]
	ldr	r3, [r3]
	.loc 1 509 34
	ldr	r3, [r3, #4]
	.loc 1 509 46
	uxtb	r2, r2
	strb	r2, [r3]
	.loc 1 510 13
	b	.L97
.L101:
	.loc 1 518 13
	ldrb	r3, [sp, #19]	@ zero_extendqisi2
	uxth	r3, r3
	str	r3, [sp]
	movs	r3, #4
	movs	r2, #16
	movs	r1, #18
	movs	r0, #1
	bl	openserial_printLog
	.loc 1 519 20
	movs	r3, #1
	b	.L56
.L111:
	.loc 1 512 13
	nop
.L97:
	.loc 1 523 13
	movs	r3, #0
	strb	r3, [sp, #31]
	.loc 1 524 20
	ldrb	r3, [sp, #52]	@ zero_extendqisi2
	lsls	r3, r3, #7
	.loc 1 524 13
	sxtb	r2, r3
	ldrsb	r3, [sp, #31]
	orrs	r3, r3, r2
	sxtb	r3, r3
	strb	r3, [sp, #31]
	.loc 1 525 20
	ldrb	r3, [sp, #56]	@ zero_extendqisi2
	lsls	r3, r3, #6
	.loc 1 525 13
	sxtb	r2, r3
	ldrsb	r3, [sp, #31]
	orrs	r3, r3, r2
	sxtb	r3, r3
	strb	r3, [sp, #31]
	.loc 1 526 20
	ldrb	r3, [sp, #60]	@ zero_extendqisi2
	lsls	r3, r3, #4
	.loc 1 526 13
	sxtb	r2, r3
	ldrsb	r3, [sp, #31]
	orrs	r3, r3, r2
	sxtb	r3, r3
	strb	r3, [sp, #31]
	.loc 1 527 18
	ldrb	r3, [sp, #64]	@ zero_extendqisi2
	lsls	r3, r3, #3
	.loc 1 527 13
	sxtb	r2, r3
	ldrsb	r3, [sp, #31]
	orrs	r3, r3, r2
	sxtb	r3, r3
	strb	r3, [sp, #31]
	.loc 1 528 20
	ldrb	r3, [sp, #68]	@ zero_extendqisi2
	lsls	r3, r3, #2
	.loc 1 528 13
	sxtb	r2, r3
	ldrsb	r3, [sp, #31]
	orrs	r3, r3, r2
	sxtb	r3, r3
	strb	r3, [sp, #31]
	.loc 1 529 13
	ldrb	r2, [sp, #31]
	ldrb	r3, [sp, #72]
	orrs	r3, r3, r2
	strb	r3, [sp, #31]
	.loc 1 530 9
	movs	r1, #1
	ldr	r0, [sp, #20]
	bl	packetfunctions_reserveHeader
	mov	r3, r0
	.loc 1 530 8
	cmp	r3, #1
	bne	.L98
	.loc 1 531 16
	movs	r3, #1
	b	.L56
.L98:
	.loc 1 533 21
	ldr	r3, [sp, #20]
	ldr	r3, [r3]
	.loc 1 533 26
	ldr	r3, [r3, #4]
	.loc 1 533 38
	ldrb	r2, [sp, #31]
	strb	r2, [r3]
	.loc 1 534 13
	movs	r3, #0
	strb	r3, [sp, #31]
	.loc 1 535 13
	ldrb	r3, [sp, #31]
	orr	r3, r3, #96
	strb	r3, [sp, #31]
	.loc 1 536 19
	ldrb	r3, [sp, #19]	@ zero_extendqisi2
	lsls	r3, r3, #3
	.loc 1 536 13
	sxtb	r2, r3
	ldrsb	r3, [sp, #31]
	orrs	r3, r3, r2
	sxtb	r3, r3
	strb	r3, [sp, #31]
	.loc 1 537 19
	ldrb	r3, [sp, #18]	@ zero_extendqisi2
	lsls	r3, r3, #2
	.loc 1 537 13
	sxtb	r2, r3
	ldrsb	r3, [sp, #31]
	orrs	r3, r3, r2
	sxtb	r3, r3
	strb	r3, [sp, #31]
	.loc 1 538 13
	ldrb	r2, [sp, #31]
	ldrb	r3, [sp, #44]
	orrs	r3, r3, r2
	strb	r3, [sp, #31]
	.loc 1 539 9
	movs	r1, #1
	ldr	r0, [sp, #20]
	bl	packetfunctions_reserveHeader
	mov	r3, r0
	.loc 1 539 8
	cmp	r3, #1
	bne	.L99
	.loc 1 540 16
	movs	r3, #1
	b	.L56
.L99:
	.loc 1 542 21
	ldr	r3, [sp, #20]
	ldr	r3, [r3]
	.loc 1 542 26
	ldr	r3, [r3, #4]
	.loc 1 542 38
	ldrb	r2, [sp, #31]
	strb	r2, [r3]
	.loc 1 544 12
	movs	r3, #0
.L56:
	.loc 1 545 1
	mov	r0, r3
	add	sp, sp, #36
.LCFI14:
	@ sp needed
	ldr	pc, [sp], #4
.LFE120:
	.size	iphc_prependIPv6Header, .-iphc_prependIPv6Header
	.section	.text.iphc_retrieveIPv6Header,"ax",%progbits
	.align	1
	.global	iphc_retrieveIPv6Header
	.syntax unified
	.thumb
	.thumb_func
	.type	iphc_retrieveIPv6Header, %function
iphc_retrieveIPv6Header:
.LFB121:
	.loc 1 548 93
	@ args = 0, pretend = 0, frame = 72
	@ frame_needed = 0, uses_anonymous_args = 0
	push	{r4, lr}
.LCFI15:
	sub	sp, sp, #104
.LCFI16:
	str	r0, [sp, #44]
	str	r1, [sp, #40]
	str	r2, [sp, #36]
	str	r3, [sp, #32]
	.loc 1 567 18
	ldr	r3, [sp, #32]
	movs	r2, #0
	strb	r2, [r3]
	.loc 1 568 29
	movs	r3, #0
	strb	r3, [sp, #100]
	.loc 1 569 15
	movs	r3, #0
	strb	r3, [sp, #102]
	.loc 1 570 38
	ldr	r3, [sp, #40]
	movs	r2, #0
	strb	r2, [r3, #64]
	.loc 1 571 38
	ldr	r3, [sp, #36]
	movs	r2, #0
	strb	r2, [r3, #64]
	.loc 1 572 35
	ldr	r3, [sp, #40]
	movs	r2, #0
	strb	r2, [r3, #29]
	.loc 1 581 33
	ldr	r3, [sp, #44]
	ldr	r3, [r3, #4]
	.loc 1 581 63
	ldr	r2, [sp, #40]
	ldrb	r2, [r2, #64]	@ zero_extendqisi2
	.loc 1 581 44
	add	r3, r3, r2
	.loc 1 581 13
	ldrb	r3, [r3]
	strb	r3, [sp, #103]
	.loc 1 582 18
	ldrb	r3, [sp, #103]	@ zero_extendqisi2
	and	r3, r3, #240
	.loc 1 582 8
	cmp	r3, #240
	bne	.L113
	.loc 1 583 14
	ldrb	r3, [sp, #103]
	and	r3, r3, #15
	strb	r3, [sp, #101]
	.loc 1 584 22
	ldr	r3, [sp, #32]
	movs	r2, #1
	strb	r2, [r3]
	b	.L114
.L113:
	.loc 1 586 14
	movs	r3, #0
	strb	r3, [sp, #101]
.L114:
	.loc 1 589 8
	ldrb	r3, [sp, #101]	@ zero_extendqisi2
	cmp	r3, #1
	bne	.L115
	.loc 1 590 33
	movs	r3, #0
	strb	r3, [sp, #100]
	.loc 1 591 37
	ldr	r3, [sp, #44]
	ldr	r2, [r3, #4]
	.loc 1 591 50
	ldr	r3, [sp, #32]
	ldrb	r3, [r3]	@ zero_extendqisi2
	mov	r1, r3
	.loc 1 591 63
	ldrb	r3, [sp, #100]	@ zero_extendqisi2
	add	r3, r3, r1
	add	r3, r3, r2
	.loc 1 591 17
	ldrb	r3, [r3]
	strb	r3, [sp, #103]
	.loc 1 592 15
	b	.L116
.L145:
	.loc 1 593 29
	ldrb	r3, [sp, #103]	@ zero_extendqisi2
	and	r3, r3, #224
	.loc 1 593 13
	cmp	r3, #128
	beq	.L117
	cmp	r3, #160
	beq	.L118
	b	.L119
.L117:
	.loc 1 595 51
	ldr	r3, [sp, #44]
	ldr	r2, [r3, #4]
	.loc 1 595 64
	ldr	r3, [sp, #32]
	ldrb	r3, [r3]	@ zero_extendqisi2
	mov	r1, r3
	.loc 1 595 77
	ldrb	r3, [sp, #100]	@ zero_extendqisi2
	add	r3, r3, r1
	.loc 1 595 103
	adds	r3, r3, #1
	add	r3, r3, r2
	.loc 1 595 31
	ldrb	r3, [r3]
	strb	r3, [sp, #98]
	.loc 1 596 24
	ldrb	r3, [sp, #98]	@ zero_extendqisi2
	cmp	r3, #4
	bhi	.L120
	.loc 1 597 28
	ldrb	r3, [sp, #102]	@ zero_extendqisi2
	cmp	r3, #3
	bne	.L121
	.loc 1 598 29
	ldrb	r3, [sp, #102]	@ zero_extendqisi2
	uxth	r3, r3
	str	r3, [sp]
	movs	r3, #13
	movs	r2, #16
	movs	r1, #18
	movs	r0, #2
	bl	openserial_printLog
	.loc 1 601 36
	movs	r3, #1
	b	.L147
.L121:
	.loc 1 603 28
	ldrb	r3, [sp, #102]	@ zero_extendqisi2
	cmp	r3, #0
	bne	.L123
	.loc 1 604 50
	ldr	r3, [sp, #40]
	ldr	r3, [r3, #24]
	.loc 1 604 32
	cmp	r3, #0
	bne	.L124
	.loc 1 605 64
	ldr	r3, [sp, #40]
	movs	r2, #43
	strb	r2, [r3, #9]
.L124:
	.loc 1 607 92
	ldr	r3, [sp, #44]
	ldr	r1, [r3, #4]
	.loc 1 608 33
	ldr	r3, [sp, #32]
	ldrb	r3, [r3]	@ zero_extendqisi2
	mov	r2, r3
	.loc 1 608 46
	ldrb	r3, [sp, #100]	@ zero_extendqisi2
	add	r2, r2, r3
	.loc 1 607 62
	ldrb	r3, [sp, #102]	@ zero_extendqisi2
	.loc 1 608 46
	add	r2, r2, r1
	.loc 1 607 74
	ldr	r1, [sp, #40]
	adds	r3, r3, #2
	lsls	r3, r3, #2
	add	r3, r3, r1
	str	r2, [r3, #4]
.L123:
	.loc 1 611 30
	ldrb	r3, [sp, #103]
	and	r3, r3, #31
	strb	r3, [sp, #97]
	.loc 1 612 30
	ldrb	r3, [sp, #97]
	adds	r3, r3, #1
	strb	r3, [sp, #97]
	.loc 1 613 25
	ldrb	r3, [sp, #98]	@ zero_extendqisi2
	cmp	r3, #4
	bhi	.L149
	adr	r2, .L127
	ldr	pc, [r2, r3, lsl #2]
	.p2align 2
.L127:
	.word	.L131+1
	.word	.L130+1
	.word	.L129+1
	.word	.L128+1
	.word	.L126+1
	.p2align 1
.L131:
	.loc 1 615 57
	ldrb	r2, [sp, #97]
	ldrb	r3, [sp, #100]
	add	r3, r3, r2
	uxtb	r3, r3
	adds	r3, r3, #2
	strb	r3, [sp, #100]
	.loc 1 616 33
	b	.L132
.L130:
	.loc 1 618 57
	ldrb	r3, [sp, #97]
	adds	r3, r3, #1
	uxtb	r3, r3
	lsls	r3, r3, #1
	uxtb	r2, r3
	ldrb	r3, [sp, #100]
	add	r3, r3, r2
	strb	r3, [sp, #100]
	.loc 1 619 33
	b	.L132
.L129:
	.loc 1 621 57
	ldrb	r3, [sp, #97]
	lsls	r3, r3, #2
	uxtb	r2, r3
	ldrb	r3, [sp, #100]
	add	r3, r3, r2
	uxtb	r3, r3
	adds	r3, r3, #2
	strb	r3, [sp, #100]
	.loc 1 622 33
	b	.L132
.L128:
	.loc 1 624 57
	ldrb	r3, [sp, #97]
	lsls	r3, r3, #3
	uxtb	r2, r3
	ldrb	r3, [sp, #100]
	add	r3, r3, r2
	uxtb	r3, r3
	adds	r3, r3, #2
	strb	r3, [sp, #100]
	.loc 1 625 33
	b	.L132
.L126:
	.loc 1 627 57
	ldrb	r3, [sp, #97]
	lsls	r3, r3, #4
	uxtb	r2, r3
	ldrb	r3, [sp, #100]
	add	r3, r3, r2
	uxtb	r3, r3
	adds	r3, r3, #2
	strb	r3, [sp, #100]
	.loc 1 628 33
	b	.L132
.L120:
	.loc 1 631 28
	ldrb	r3, [sp, #98]	@ zero_extendqisi2
	cmp	r3, #5
	bne	.L133
	.loc 1 632 66
	ldr	r3, [sp, #40]
	ldr	r3, [r3, #12]
	.loc 1 632 32
	cmp	r3, #0
	bne	.L134
	.loc 1 633 64
	ldr	r3, [sp, #40]
	movs	r2, #0
	strb	r2, [r3, #9]
.L134:
	.loc 1 635 82
	ldr	r3, [sp, #44]
	ldr	r2, [r3, #4]
	.loc 1 635 95
	ldr	r3, [sp, #32]
	ldrb	r3, [r3]	@ zero_extendqisi2
	mov	r1, r3
	.loc 1 635 108
	ldrb	r3, [sp, #100]	@ zero_extendqisi2
	add	r3, r3, r1
	add	r2, r2, r3
	.loc 1 635 64
	ldr	r3, [sp, #40]
	str	r2, [r3, #24]
	.loc 1 637 45
	ldrb	r3, [sp, #103]	@ zero_extendqisi2
	and	r3, r3, #3
	cmp	r3, #3
	beq	.L135
	cmp	r3, #3
	bgt	.L149
	cmp	r3, #0
	beq	.L137
	cmp	r3, #0
	blt	.L149
	subs	r3, r3, #1
	cmp	r3, #1
	bhi	.L149
	b	.L148
.L137:
	.loc 1 639 61
	ldrb	r3, [sp, #100]
	adds	r3, r3, #5
	strb	r3, [sp, #100]
	.loc 1 640 37
	b	.L132
.L148:
	.loc 1 643 61
	ldrb	r3, [sp, #100]
	adds	r3, r3, #4
	strb	r3, [sp, #100]
	.loc 1 644 37
	b	.L132
.L135:
	.loc 1 646 61
	ldrb	r3, [sp, #100]
	adds	r3, r3, #3
	strb	r3, [sp, #100]
	.loc 1 647 37
	b	.L132
.L133:
	.loc 1 651 29
	ldrb	r3, [sp, #98]	@ zero_extendqisi2
	uxth	r3, r3
	str	r3, [sp]
	movs	r3, #14
	movs	r2, #16
	movs	r1, #18
	movs	r0, #2
	bl	openserial_printLog
	.loc 1 656 21
	b	.L149
.L132:
	.loc 1 656 21 is_stmt 0 discriminator 4
	b	.L149
.L118:
	.loc 1 659 33 is_stmt 1
	ldrb	r3, [sp, #103]
	and	r3, r3, #31
	strb	r3, [sp, #99]
	.loc 1 661 32
	ldr	r3, [sp, #44]
	ldr	r2, [r3, #4]
	.loc 1 661 61
	ldr	r3, [sp, #40]
	ldrb	r3, [r3, #64]	@ zero_extendqisi2
	mov	r1, r3
	.loc 1 661 79
	ldr	r3, [sp, #32]
	ldrb	r3, [r3]	@ zero_extendqisi2
	.loc 1 661 77
	add	r1, r1, r3
	.loc 1 661 92
	ldrb	r3, [sp, #100]	@ zero_extendqisi2
	add	r3, r3, r1
	.loc 1 661 118
	adds	r3, r3, #1
	.loc 1 660 34
	add	r3, r3, r2
	.loc 1 660 31
	ldrb	r3, [r3]
	strb	r3, [sp, #98]
	.loc 1 663 24
	ldrb	r3, [sp, #98]	@ zero_extendqisi2
	cmp	r3, #6
	bne	.L139
	.loc 1 664 58
	ldr	r3, [sp, #40]
	ldrb	r3, [r3, #64]	@ zero_extendqisi2
	adds	r3, r3, #1
	uxtb	r2, r3
	ldr	r3, [sp, #40]
	strb	r2, [r3, #64]
	.loc 1 666 58
	ldr	r3, [sp, #40]
	ldrb	r3, [r3, #64]	@ zero_extendqisi2
	adds	r3, r3, #1
	uxtb	r2, r3
	ldr	r3, [sp, #40]
	strb	r2, [r3, #64]
	.loc 1 668 36
	ldr	r3, [sp, #44]
	ldr	r2, [r3, #4]
	.loc 1 668 65
	ldr	r3, [sp, #40]
	ldrb	r3, [r3, #64]	@ zero_extendqisi2
	mov	r1, r3
	.loc 1 668 83
	ldr	r3, [sp, #32]
	ldrb	r3, [r3]	@ zero_extendqisi2
	.loc 1 668 81
	add	r1, r1, r3
	.loc 1 668 96
	ldrb	r3, [sp, #100]	@ zero_extendqisi2
	add	r3, r3, r1
	.loc 1 667 57
	add	r3, r3, r2
	.loc 1 667 56
	ldrb	r2, [r3]	@ zero_extendqisi2
	.loc 1 667 54
	ldr	r3, [sp, #40]
	strb	r2, [r3, #28]
	.loc 1 670 58
	ldr	r3, [sp, #40]
	ldrb	r3, [r3, #64]	@ zero_extendqisi2
	adds	r3, r3, #1
	uxtb	r2, r3
	ldr	r3, [sp, #40]
	strb	r2, [r3, #64]
	.loc 1 673 54
	ldr	r3, [sp, #40]
	movs	r2, #0
	strb	r2, [r3, #47]
	.loc 1 674 32
	ldr	r3, [sp, #40]
	adds	r3, r3, #48
	.loc 1 674 25
	movs	r2, #16
	movs	r1, #0
	mov	r0, r3
	bl	memset
	.loc 1 675 28
	ldrb	r3, [sp, #99]	@ zero_extendqisi2
	cmp	r3, #1
	bne	.L140
	.loc 1 677 36
	ldr	r3, [sp, #40]
	adds	r3, r3, #30
	.loc 1 677 29
	movs	r2, #17
	movs	r1, #0
	mov	r0, r3
	bl	memset
	.loc 1 678 29
	movs	r0, #5
	bl	idmanager_getMyID
	ldr	r3, [sp, #40]
	adds	r3, r3, #30
	mov	r2, r3
	ldr	r1, .L151
	bl	packetfunctions_mac64bToIp128b
	.loc 1 723 21
	b	.L119
.L140:
	.loc 1 682 49
	ldrb	r3, [sp, #99]	@ zero_extendqisi2
	subs	r3, r3, #1
	cmp	r3, #8
	beq	.L142
	cmp	r3, #16
	bne	.L143
	.loc 1 686 48
	ldr	r3, [sp, #44]
	ldr	r2, [r3, #4]
	.loc 1 686 77
	ldr	r3, [sp, #40]
	ldrb	r3, [r3, #64]	@ zero_extendqisi2
	mov	r1, r3
	.loc 1 686 95
	ldr	r3, [sp, #32]
	ldrb	r3, [r3]	@ zero_extendqisi2
	.loc 1 686 93
	add	r1, r1, r3
	.loc 1 686 108
	ldrb	r3, [sp, #100]	@ zero_extendqisi2
	add	r3, r3, r1
	.loc 1 685 37
	adds	r0, r2, r3
	ldr	r3, [sp, #40]
	add	r2, r3, #30
	movs	r3, #0
	movs	r1, #3
	bl	packetfunctions_readAddress
	.loc 1 689 70
	ldr	r3, [sp, #40]
	ldrb	r3, [r3, #64]	@ zero_extendqisi2
	adds	r3, r3, #16
	uxtb	r2, r3
	ldr	r3, [sp, #40]
	strb	r2, [r3, #64]
	.loc 1 690 37
	b	.L144
.L142:
	.loc 1 694 48
	ldr	r3, [sp, #44]
	ldr	r2, [r3, #4]
	.loc 1 694 77
	ldr	r3, [sp, #40]
	ldrb	r3, [r3, #64]	@ zero_extendqisi2
	mov	r1, r3
	.loc 1 694 95
	ldr	r3, [sp, #32]
	ldrb	r3, [r3]	@ zero_extendqisi2
	.loc 1 694 93
	add	r1, r1, r3
	.loc 1 694 108
	ldrb	r3, [sp, #100]	@ zero_extendqisi2
	add	r3, r3, r1
	.loc 1 693 37
	adds	r0, r2, r3
	add	r2, sp, #60
	movs	r3, #0
	movs	r1, #2
	bl	packetfunctions_readAddress
	.loc 1 696 70
	ldr	r3, [sp, #40]
	ldrb	r3, [r3, #64]	@ zero_extendqisi2
	adds	r3, r3, #8
	uxtb	r2, r3
	ldr	r3, [sp, #40]
	strb	r2, [r3, #64]
	.loc 1 697 37
	movs	r0, #5
	bl	idmanager_getMyID
	ldr	r3, [sp, #40]
	add	r2, r3, #30
	add	r3, sp, #60
	mov	r1, r3
	bl	packetfunctions_mac64bToIp128b
	.loc 1 699 37
	b	.L144
.L143:
	.loc 1 702 37
	ldrb	r3, [sp, #99]	@ zero_extendqisi2
	uxth	r3, r3
	subs	r3, r3, #1
	uxth	r3, r3
	str	r3, [sp]
	movs	r3, #12
	movs	r2, #16
	movs	r1, #18
	movs	r0, #2
	bl	openserial_printLog
	.loc 1 723 21
	b	.L119
.L139:
	.loc 1 717 25
	ldrb	r3, [sp, #102]	@ zero_extendqisi2
	uxth	r3, r3
	str	r3, [sp]
	movs	r3, #13
	movs	r2, #16
	movs	r1, #18
	movs	r0, #2
	bl	openserial_printLog
	.loc 1 720 49
	ldrb	r2, [sp, #99]
	ldrb	r3, [sp, #100]
	add	r3, r3, r2
	uxtb	r3, r3
	adds	r3, r3, #2
	strb	r3, [sp, #100]
	.loc 1 721 55
	ldr	r3, [sp, #40]
	ldrb	r2, [r3, #29]	@ zero_extendqisi2
	ldrb	r3, [sp, #99]
	add	r3, r3, r2
	uxtb	r3, r3
	adds	r3, r3, #2
	uxtb	r2, r3
	ldr	r3, [sp, #40]
	strb	r2, [r3, #29]
	.loc 1 723 21
	b	.L119
.L144:
	.loc 1 723 21 is_stmt 0 discriminator 5
	b	.L119
.L149:
	.loc 1 656 21 is_stmt 1
	nop
.L119:
	.loc 1 725 41
	ldr	r3, [sp, #44]
	ldr	r2, [r3, #4]
	.loc 1 726 25
	ldr	r3, [sp, #32]
	ldrb	r3, [r3]	@ zero_extendqisi2
	mov	r1, r3
	.loc 1 726 38
	ldrb	r3, [sp, #100]	@ zero_extendqisi2
	add	r3, r3, r1
	.loc 1 728 42
	ldr	r1, [sp, #40]
	ldrb	r1, [r1, #64]	@ zero_extendqisi2
	.loc 1 727 49
	add	r3, r3, r1
	.loc 1 725 24
	add	r3, r3, r2
	.loc 1 725 21
	ldrb	r3, [r3]
	strb	r3, [sp, #103]
	.loc 1 729 22
	ldrb	r3, [sp, #102]	@ zero_extendqisi2
	adds	r3, r3, #1
	strb	r3, [sp, #102]
.L116:
	.loc 1 592 25
	ldrb	r3, [sp, #103]	@ zero_extendqisi2
	and	r3, r3, #224
	.loc 1 592 64
	cmp	r3, #128
	beq	.L145
	.loc 1 592 76 discriminator 1
	ldrb	r3, [sp, #103]	@ zero_extendqisi2
	and	r3, r3, #224
	.loc 1 592 64 discriminator 1
	cmp	r3, #160
	beq	.L145
.L115:
	.loc 1 746 56
	ldr	r3, [sp, #40]
	ldrb	r2, [r3, #64]	@ zero_extendqisi2
	.loc 1 746 37
	ldrb	r3, [sp, #100]
	add	r3, r3, r2
	uxtb	r2, r3
	.loc 1 746 74
	ldr	r3, [sp, #32]
	ldrb	r3, [r3]	@ zero_extendqisi2
	.loc 1 734 9
	add	r3, r3, r2
	uxtb	r3, r3
	add	r4, sp, #58
	add	r2, sp, #59
	add	r1, sp, #60
	add	r0, sp, #80
	str	r3, [sp, #28]
	ldr	r3, [sp, #36]
	str	r3, [sp, #24]
	ldr	r3, [sp, #44]
	str	r3, [sp, #20]
	add	r3, sp, #53
	str	r3, [sp, #16]
	add	r3, sp, #54
	str	r3, [sp, #12]
	add	r3, sp, #55
	str	r3, [sp, #8]
	add	r3, sp, #56
	str	r3, [sp, #4]
	add	r3, sp, #57
	str	r3, [sp]
	mov	r3, r4
	bl	iphc_retrieveIphcHeader
	mov	r3, r0
	.loc 1 734 8
	cmp	r3, #1
	bne	.L146
	.loc 1 748 16
	movs	r3, #1
	b	.L147
.L146:
	.loc 1 751 12
	movs	r3, #0
.L147:
	.loc 1 752 1 discriminator 6
	mov	r0, r3
	add	sp, sp, #104
.LCFI17:
	@ sp needed
	pop	{r4, pc}
.L152:
	.align	2
.L151:
	.word	dagroot_mac64b
.LFE121:
	.size	iphc_retrieveIPv6Header, .-iphc_retrieveIPv6Header
	.section	.text.iphc_retrieveIphcHeader,"ax",%progbits
	.align	1
	.global	iphc_retrieveIphcHeader
	.syntax unified
	.thumb
	.thumb_func
	.type	iphc_retrieveIphcHeader, %function
iphc_retrieveIphcHeader:
.LFB122:
	.loc 1 765 54
	@ args = 32, pretend = 0, frame = 24
	@ frame_needed = 0, uses_anonymous_args = 0
	push	{r4, r5, lr}
.LCFI18:
	sub	sp, sp, #36
.LCFI19:
	str	r0, [sp, #20]
	str	r1, [sp, #16]
	str	r2, [sp, #12]
	str	r3, [sp, #8]
	.loc 1 772 33
	ldr	r3, [sp, #68]
	ldr	r2, [r3, #4]
	.loc 1 772 57
	ldr	r3, [sp, #72]
	ldrb	r3, [r3, #64]	@ zero_extendqisi2
	mov	r1, r3
	.loc 1 772 73
	ldrb	r3, [sp, #76]	@ zero_extendqisi2
	add	r3, r3, r1
	add	r3, r3, r2
	.loc 1 772 13
	ldrb	r3, [r3]
	strb	r3, [sp, #30]
	.loc 1 774 18
	ldrb	r3, [sp, #30]	@ zero_extendqisi2
	and	r3, r3, #240
	.loc 1 774 8
	cmp	r3, #240
	bne	.L154
	.loc 1 775 14
	ldrb	r3, [sp, #30]
	and	r3, r3, #15
	strb	r3, [sp, #31]
	.loc 1 776 36
	ldr	r3, [sp, #72]
	ldrb	r3, [r3, #64]	@ zero_extendqisi2
	adds	r3, r3, #1
	uxtb	r2, r3
	ldr	r3, [sp, #72]
	strb	r2, [r3, #64]
	b	.L155
.L154:
	.loc 1 778 14
	movs	r3, #0
	strb	r3, [sp, #31]
.L155:
	.loc 1 781 8
	ldrb	r3, [sp, #31]	@ zero_extendqisi2
	cmp	r3, #0
	beq	.L156
	.loc 1 782 23
	ldrb	r3, [sp, #31]	@ zero_extendqisi2
	cmp	r3, #1
	bne	.L157
	.loc 1 783 46
	ldr	r3, [sp, #68]
	ldr	r2, [r3, #4]
	.loc 1 783 70
	ldr	r3, [sp, #72]
	ldrb	r3, [r3, #64]	@ zero_extendqisi2
	mov	r1, r3
	.loc 1 783 86
	ldrb	r3, [sp, #76]	@ zero_extendqisi2
	add	r3, r3, r1
	add	r3, r3, r2
	.loc 1 783 28
	ldrb	r3, [r3]	@ zero_extendqisi2
	.loc 1 783 101
	and	r3, r3, #192
	.loc 1 783 24
	cmp	r3, #128
	beq	.L157
.L156:
	.loc 1 786 37
	ldr	r3, [sp, #68]
	ldr	r2, [r3, #4]
	.loc 1 786 61
	ldr	r3, [sp, #72]
	ldrb	r3, [r3, #64]	@ zero_extendqisi2
	mov	r1, r3
	.loc 1 786 77
	ldrb	r3, [sp, #76]	@ zero_extendqisi2
	add	r3, r3, r1
	add	r3, r3, r2
	.loc 1 786 17
	ldrb	r3, [r3]
	strb	r3, [sp, #30]
	.loc 1 787 19
	ldrb	r3, [sp, #30]	@ zero_extendqisi2
	lsrs	r3, r3, #5
	uxtb	r2, r3
	ldr	r3, [sp, #12]
	strb	r2, [r3]
	.loc 1 788 36
	ldrb	r3, [sp, #30]	@ zero_extendqisi2
	lsrs	r3, r3, #3
	uxtb	r3, r3
	and	r3, r3, #3
	uxtb	r2, r3
	.loc 1 788 13
	ldr	r3, [sp, #8]
	strb	r2, [r3]
	.loc 1 789 36
	ldrb	r3, [sp, #30]	@ zero_extendqisi2
	lsrs	r3, r3, #2
	uxtb	r3, r3
	and	r3, r3, #1
	uxtb	r2, r3
	.loc 1 789 13
	ldr	r3, [sp, #48]
	strb	r2, [r3]
	.loc 1 790 40
	ldrb	r3, [sp, #30]
	and	r3, r3, #3
	uxtb	r2, r3
	.loc 1 790 15
	ldr	r3, [sp, #52]
	strb	r2, [r3]
	.loc 1 791 36
	ldr	r3, [sp, #72]
	ldrb	r3, [r3, #64]	@ zero_extendqisi2
	adds	r3, r3, #1
	uxtb	r2, r3
	ldr	r3, [sp, #72]
	strb	r2, [r3, #64]
	.loc 1 792 37
	ldr	r3, [sp, #68]
	ldr	r2, [r3, #4]
	.loc 1 792 61
	ldr	r3, [sp, #72]
	ldrb	r3, [r3, #64]	@ zero_extendqisi2
	mov	r1, r3
	.loc 1 792 77
	ldrb	r3, [sp, #76]	@ zero_extendqisi2
	add	r3, r3, r1
	add	r3, r3, r2
	.loc 1 792 17
	ldrb	r3, [r3]
	strb	r3, [sp, #30]
	.loc 1 795 38
	ldrb	r3, [sp, #30]	@ zero_extendqisi2
	lsrs	r3, r3, #4
	uxtb	r3, r3
	and	r3, r3, #3
	uxtb	r2, r3
	.loc 1 795 14
	ldr	r3, [sp, #56]
	strb	r2, [r3]
	.loc 1 797 34
	ldrb	r3, [sp, #30]	@ zero_extendqisi2
	lsrs	r3, r3, #3
	uxtb	r3, r3
	and	r3, r3, #1
	uxtb	r2, r3
	.loc 1 797 12
	ldr	r3, [sp, #60]
	strb	r2, [r3]
	.loc 1 799 38
	ldrb	r3, [sp, #30]
	and	r3, r3, #3
	uxtb	r2, r3
	.loc 1 799 14
	ldr	r3, [sp, #64]
	strb	r2, [r3]
	.loc 1 800 36
	ldr	r3, [sp, #72]
	ldrb	r3, [r3, #64]	@ zero_extendqisi2
	adds	r3, r3, #1
	uxtb	r2, r3
	ldr	r3, [sp, #72]
	strb	r2, [r3, #64]
	.loc 1 803 17
	ldr	r3, [sp, #12]
	ldrb	r3, [r3]	@ zero_extendqisi2
	.loc 1 803 9
	cmp	r3, #3
	beq	.L207
	.loc 1 807 17
	ldr	r3, [sp, #12]
	ldrb	r3, [r3]	@ zero_extendqisi2
	uxth	r3, r3
	str	r3, [sp]
	movs	r3, #5
	movs	r2, #16
	movs	r1, #18
	movs	r0, #2
	bl	openserial_printLog
	.loc 1 810 24
	movs	r3, #1
	b	.L160
.L207:
	.loc 1 805 17
	nop
	.loc 1 814 17
	ldr	r3, [sp, #8]
	ldrb	r3, [r3]	@ zero_extendqisi2
	.loc 1 814 9
	cmp	r3, #1
	beq	.L161
	cmp	r3, #3
	beq	.L162
	b	.L205
.L161:
	.loc 1 817 41
	ldr	r3, [sp, #72]
	movs	r2, #0
	str	r2, [r3, #4]
	.loc 1 818 41
	ldr	r3, [sp, #72]
	ldr	r3, [r3, #4]
	.loc 1 819 56
	ldr	r2, [sp, #68]
	ldr	r1, [r2, #4]
	.loc 1 819 80
	ldr	r2, [sp, #72]
	ldrb	r2, [r2, #64]	@ zero_extendqisi2
	mov	r0, r2
	.loc 1 819 96
	ldrb	r2, [sp, #76]	@ zero_extendqisi2
	add	r2, r2, r0
	add	r2, r2, r1
	.loc 1 819 37
	ldrb	r2, [r2]	@ zero_extendqisi2
	.loc 1 818 41
	orrs	r2, r2, r3
	ldr	r3, [sp, #72]
	str	r2, [r3, #4]
	.loc 1 820 44
	ldr	r3, [sp, #72]
	ldrb	r3, [r3, #64]	@ zero_extendqisi2
	adds	r3, r3, #1
	uxtb	r2, r3
	ldr	r3, [sp, #72]
	strb	r2, [r3, #64]
	.loc 1 821 41
	ldr	r3, [sp, #72]
	ldr	r2, [r3, #4]
	.loc 1 822 56
	ldr	r3, [sp, #68]
	ldr	r1, [r3, #4]
	.loc 1 822 80
	ldr	r3, [sp, #72]
	ldrb	r3, [r3, #64]	@ zero_extendqisi2
	mov	r0, r3
	.loc 1 822 96
	ldrb	r3, [sp, #76]	@ zero_extendqisi2
	add	r3, r3, r0
	add	r3, r3, r1
	.loc 1 822 37
	ldrb	r3, [r3]	@ zero_extendqisi2
	.loc 1 822 112
	lsls	r3, r3, #8
	.loc 1 821 41
	orrs	r2, r2, r3
	ldr	r3, [sp, #72]
	str	r2, [r3, #4]
	.loc 1 823 44
	ldr	r3, [sp, #72]
	ldrb	r3, [r3, #64]	@ zero_extendqisi2
	adds	r3, r3, #1
	uxtb	r2, r3
	ldr	r3, [sp, #72]
	strb	r2, [r3, #64]
	.loc 1 824 41
	ldr	r3, [sp, #72]
	ldr	r2, [r3, #4]
	.loc 1 825 56
	ldr	r3, [sp, #68]
	ldr	r1, [r3, #4]
	.loc 1 825 80
	ldr	r3, [sp, #72]
	ldrb	r3, [r3, #64]	@ zero_extendqisi2
	mov	r0, r3
	.loc 1 825 96
	ldrb	r3, [sp, #76]	@ zero_extendqisi2
	add	r3, r3, r0
	add	r3, r3, r1
	.loc 1 825 37
	ldrb	r3, [r3]	@ zero_extendqisi2
	.loc 1 825 112
	lsls	r3, r3, #16
	.loc 1 824 41
	orrs	r2, r2, r3
	ldr	r3, [sp, #72]
	str	r2, [r3, #4]
	.loc 1 826 44
	ldr	r3, [sp, #72]
	ldrb	r3, [r3, #64]	@ zero_extendqisi2
	adds	r3, r3, #1
	uxtb	r2, r3
	ldr	r3, [sp, #72]
	strb	r2, [r3, #64]
	.loc 1 827 17
	b	.L164
.L162:
	.loc 1 829 41
	ldr	r3, [sp, #72]
	movs	r2, #0
	str	r2, [r3, #4]
	.loc 1 830 17
	b	.L164
.L205:
	.loc 1 836 17
	ldr	r3, [sp, #8]
	ldrb	r3, [r3]	@ zero_extendqisi2
	uxth	r3, r3
	str	r3, [sp]
	movs	r3, #6
	movs	r2, #16
	movs	r1, #18
	movs	r0, #2
	bl	openserial_printLog
	.loc 1 837 24
	movs	r3, #1
	b	.L160
.L164:
	.loc 1 841 17
	ldr	r3, [sp, #48]
	ldrb	r3, [r3]	@ zero_extendqisi2
	.loc 1 841 9
	cmp	r3, #0
	beq	.L165
	cmp	r3, #1
	beq	.L166
	b	.L206
.L165:
	.loc 1 844 53
	ldr	r3, [sp, #72]
	movs	r2, #0
	strb	r2, [r3, #8]
	.loc 1 845 62
	ldr	r3, [sp, #68]
	ldr	r2, [r3, #4]
	.loc 1 845 86
	ldr	r3, [sp, #72]
	ldrb	r3, [r3, #64]	@ zero_extendqisi2
	mov	r1, r3
	.loc 1 845 102
	ldrb	r3, [sp, #76]	@ zero_extendqisi2
	add	r3, r3, r1
	add	r3, r3, r2
	.loc 1 845 44
	ldrb	r2, [r3]	@ zero_extendqisi2
	.loc 1 845 42
	ldr	r3, [sp, #72]
	strb	r2, [r3, #9]
	.loc 1 846 44
	ldr	r3, [sp, #72]
	ldrb	r3, [r3, #64]	@ zero_extendqisi2
	adds	r3, r3, #1
	uxtb	r2, r3
	ldr	r3, [sp, #72]
	strb	r2, [r3, #64]
	.loc 1 848 17
	b	.L168
.L166:
	.loc 1 854 53
	ldr	r3, [sp, #72]
	movs	r2, #1
	strb	r2, [r3, #8]
	.loc 1 855 17
	b	.L168
.L206:
	.loc 1 857 17
	ldr	r3, [sp, #48]
	ldrb	r3, [r3]	@ zero_extendqisi2
	uxth	r3, r3
	str	r3, [sp]
	movs	r3, #7
	movs	r2, #16
	movs	r1, #18
	movs	r0, #2
	bl	openserial_printLog
	.loc 1 858 24
	movs	r3, #1
	b	.L160
.L168:
	.loc 1 862 17
	ldr	r3, [sp, #52]
	ldrb	r3, [r3]	@ zero_extendqisi2
	.loc 1 862 9
	cmp	r3, #3
	bhi	.L169
	adr	r2, .L171
	ldr	pc, [r2, r3, lsl #2]
	.p2align 2
.L171:
	.word	.L174+1
	.word	.L173+1
	.word	.L172+1
	.word	.L170+1
	.p2align 1
.L174:
	.loc 1 864 60
	ldr	r3, [sp, #68]
	ldr	r2, [r3, #4]
	.loc 1 864 83
	ldr	r3, [sp, #72]
	ldrb	r3, [r3, #64]	@ zero_extendqisi2
	mov	r1, r3
	.loc 1 864 99
	ldrb	r3, [sp, #76]	@ zero_extendqisi2
	add	r3, r3, r1
	.loc 1 864 44
	add	r3, r3, r2
	.loc 1 864 42
	ldrb	r2, [r3]	@ zero_extendqisi2
	.loc 1 864 40
	ldr	r3, [sp, #72]
	strb	r2, [r3, #28]
	.loc 1 865 44
	ldr	r3, [sp, #72]
	ldrb	r3, [r3, #64]	@ zero_extendqisi2
	adds	r3, r3, #1
	uxtb	r2, r3
	ldr	r3, [sp, #72]
	strb	r2, [r3, #64]
	.loc 1 866 17
	b	.L175
.L173:
	.loc 1 868 40
	ldr	r3, [sp, #72]
	movs	r2, #1
	strb	r2, [r3, #28]
	.loc 1 869 17
	b	.L175
.L172:
	.loc 1 871 40
	ldr	r3, [sp, #72]
	movs	r2, #64
	strb	r2, [r3, #28]
	.loc 1 872 17
	b	.L175
.L170:
	.loc 1 874 40
	ldr	r3, [sp, #72]
	movs	r2, #255
	strb	r2, [r3, #28]
	.loc 1 875 17
	b	.L175
.L169:
	.loc 1 877 17
	ldr	r3, [sp, #52]
	ldrb	r3, [r3]	@ zero_extendqisi2
	uxth	r3, r3
	str	r3, [sp]
	movs	r3, #8
	movs	r2, #16
	movs	r1, #18
	movs	r0, #2
	bl	openserial_printLog
	.loc 1 878 24
	movs	r3, #1
	b	.L160
.L175:
	.loc 1 882 17
	ldr	r3, [sp, #56]
	ldrb	r3, [r3]	@ zero_extendqisi2
	.loc 1 882 9
	cmp	r3, #3
	bhi	.L176
	adr	r2, .L178
	ldr	pc, [r2, r3, lsl #2]
	.p2align 2
.L178:
	.word	.L181+1
	.word	.L180+1
	.word	.L179+1
	.word	.L177+1
	.p2align 1
.L177:
	.loc 1 884 17
	movs	r0, #5
	bl	idmanager_getMyID
	ldr	r3, [sp, #68]
	add	r1, r3, #61
	ldr	r3, [sp, #72]
	adds	r3, r3, #30
	mov	r2, r3
	bl	packetfunctions_mac64bToIp128b
	.loc 1 886 17
	b	.L182
.L179:
	.loc 1 888 62
	ldr	r3, [sp, #68]
	ldr	r2, [r3, #4]
	.loc 1 888 85
	ldr	r3, [sp, #72]
	ldrb	r3, [r3, #64]	@ zero_extendqisi2
	mov	r1, r3
	.loc 1 888 101
	ldrb	r3, [sp, #76]	@ zero_extendqisi2
	add	r3, r3, r1
	.loc 1 888 17
	adds	r0, r2, r3
	movs	r3, #0
	ldr	r2, [sp, #20]
	movs	r1, #1
	bl	packetfunctions_readAddress
	.loc 1 890 44
	ldr	r3, [sp, #72]
	ldrb	r3, [r3, #64]	@ zero_extendqisi2
	adds	r3, r3, #2
	uxtb	r2, r3
	ldr	r3, [sp, #72]
	strb	r2, [r3, #64]
	.loc 1 891 17
	ldr	r1, [sp, #16]
	ldr	r0, [sp, #20]
	bl	packetfunctions_mac16bToMac64b
	.loc 1 892 17
	movs	r0, #5
	bl	idmanager_getMyID
	ldr	r3, [sp, #72]
	adds	r3, r3, #30
	mov	r2, r3
	ldr	r1, [sp, #16]
	bl	packetfunctions_mac64bToIp128b
	.loc 1 893 17
	b	.L182
.L180:
	.loc 1 895 62
	ldr	r3, [sp, #68]
	ldr	r2, [r3, #4]
	.loc 1 895 85
	ldr	r3, [sp, #72]
	ldrb	r3, [r3, #64]	@ zero_extendqisi2
	mov	r1, r3
	.loc 1 895 101
	ldrb	r3, [sp, #76]	@ zero_extendqisi2
	add	r3, r3, r1
	.loc 1 895 17
	adds	r0, r2, r3
	movs	r3, #0
	ldr	r2, [sp, #16]
	movs	r1, #2
	bl	packetfunctions_readAddress
	.loc 1 897 44
	ldr	r3, [sp, #72]
	ldrb	r3, [r3, #64]	@ zero_extendqisi2
	adds	r3, r3, #8
	uxtb	r2, r3
	ldr	r3, [sp, #72]
	strb	r2, [r3, #64]
	.loc 1 898 17
	movs	r0, #5
	bl	idmanager_getMyID
	ldr	r3, [sp, #72]
	adds	r3, r3, #30
	mov	r2, r3
	ldr	r1, [sp, #16]
	bl	packetfunctions_mac64bToIp128b
	.loc 1 899 17
	b	.L182
.L181:
	.loc 1 901 62
	ldr	r3, [sp, #68]
	ldr	r2, [r3, #4]
	.loc 1 901 85
	ldr	r3, [sp, #72]
	ldrb	r3, [r3, #64]	@ zero_extendqisi2
	mov	r1, r3
	.loc 1 901 101
	ldrb	r3, [sp, #76]	@ zero_extendqisi2
	add	r3, r3, r1
	.loc 1 901 17
	adds	r0, r2, r3
	ldr	r3, [sp, #72]
	add	r2, r3, #30
	movs	r3, #0
	movs	r1, #3
	bl	packetfunctions_readAddress
	.loc 1 903 44
	ldr	r3, [sp, #72]
	ldrb	r3, [r3, #64]	@ zero_extendqisi2
	adds	r3, r3, #16
	uxtb	r2, r3
	ldr	r3, [sp, #72]
	strb	r2, [r3, #64]
	.loc 1 904 17
	b	.L182
.L176:
	.loc 1 906 17
	ldr	r3, [sp, #56]
	ldrb	r3, [r3]	@ zero_extendqisi2
	uxth	r3, r3
	str	r3, [sp]
	movs	r3, #9
	movs	r2, #16
	movs	r1, #18
	movs	r0, #2
	bl	openserial_printLog
	.loc 1 907 24
	movs	r3, #1
	b	.L160
.L182:
	.loc 1 911 13
	ldr	r3, [sp, #60]
	ldrb	r3, [r3]	@ zero_extendqisi2
	.loc 1 911 12
	cmp	r3, #1
	bne	.L183
	.loc 1 912 21
	ldr	r3, [sp, #64]
	ldrb	r3, [r3]	@ zero_extendqisi2
	.loc 1 912 13
	cmp	r3, #3
	bhi	.L184
	adr	r2, .L186
	ldr	pc, [r2, r3, lsl #2]
	.p2align 2
.L186:
	.word	.L208+1
	.word	.L208+1
	.word	.L208+1
	.word	.L185+1
	.p2align 1
.L185:
	.loc 1 914 44
	ldr	r3, [sp, #72]
	movs	r2, #3
	strb	r2, [r3, #47]
	.loc 1 915 28
	ldr	r3, [sp, #72]
	adds	r3, r3, #48
	.loc 1 915 21
	ldr	r2, .L210
	mov	r4, r3
	mov	r5, r2
	ldmia	r5!, {r0, r1, r2, r3}
	str	r0, [r4]	@ unaligned
	str	r1, [r4, #4]	@ unaligned
	str	r2, [r4, #8]	@ unaligned
	str	r3, [r4, #12]	@ unaligned
	.loc 1 916 60
	ldr	r3, [sp, #68]
	ldr	r2, [r3, #4]
	.loc 1 916 83
	ldr	r3, [sp, #72]
	ldrb	r3, [r3, #64]	@ zero_extendqisi2
	mov	r1, r3
	.loc 1 916 99
	ldrb	r3, [sp, #76]	@ zero_extendqisi2
	add	r3, r3, r1
	add	r3, r3, r2
	.loc 1 916 55
	ldrb	r2, [r3]	@ zero_extendqisi2
	.loc 1 916 53
	ldr	r3, [sp, #72]
	strb	r2, [r3, #63]
	.loc 1 917 48
	ldr	r3, [sp, #72]
	ldrb	r3, [r3, #64]	@ zero_extendqisi2
	adds	r3, r3, #1
	uxtb	r2, r3
	ldr	r3, [sp, #72]
	strb	r2, [r3, #64]
	.loc 1 918 21
	b	.L191
.L184:
	.loc 1 929 21
	ldr	r3, [sp, #64]
	ldrb	r3, [r3]	@ zero_extendqisi2
	uxth	r3, r3
	str	r3, [sp]
	movs	r3, #10
	movs	r2, #16
	movs	r1, #18
	movs	r0, #2
	bl	openserial_printLog
	.loc 1 930 28
	movs	r3, #1
	b	.L160
.L183:
	.loc 1 933 21
	ldr	r3, [sp, #64]
	ldrb	r3, [r3]	@ zero_extendqisi2
	.loc 1 933 13
	cmp	r3, #3
	bhi	.L192
	adr	r2, .L194
	ldr	pc, [r2, r3, lsl #2]
	.p2align 2
.L194:
	.word	.L197+1
	.word	.L196+1
	.word	.L195+1
	.word	.L193+1
	.p2align 1
.L193:
	.loc 1 935 21
	movs	r0, #5
	bl	idmanager_getMyID
	mov	r4, r0
	movs	r0, #2
	bl	idmanager_getMyID
	mov	r1, r0
	ldr	r3, [sp, #72]
	adds	r3, r3, #47
	mov	r2, r3
	mov	r0, r4
	bl	packetfunctions_mac64bToIp128b
	.loc 1 937 21
	b	.L191
.L195:
	.loc 1 939 66
	ldr	r3, [sp, #68]
	ldr	r2, [r3, #4]
	.loc 1 939 89
	ldr	r3, [sp, #72]
	ldrb	r3, [r3, #64]	@ zero_extendqisi2
	mov	r1, r3
	.loc 1 939 105
	ldrb	r3, [sp, #76]	@ zero_extendqisi2
	add	r3, r3, r1
	.loc 1 939 21
	adds	r0, r2, r3
	movs	r3, #0
	ldr	r2, [sp, #20]
	movs	r1, #1
	bl	packetfunctions_readAddress
	.loc 1 941 48
	ldr	r3, [sp, #72]
	ldrb	r3, [r3, #64]	@ zero_extendqisi2
	adds	r3, r3, #2
	uxtb	r2, r3
	ldr	r3, [sp, #72]
	strb	r2, [r3, #64]
	.loc 1 942 21
	ldr	r1, [sp, #16]
	ldr	r0, [sp, #20]
	bl	packetfunctions_mac16bToMac64b
	.loc 1 943 21
	movs	r0, #5
	bl	idmanager_getMyID
	ldr	r3, [sp, #72]
	adds	r3, r3, #47
	mov	r2, r3
	ldr	r1, [sp, #16]
	bl	packetfunctions_mac64bToIp128b
	.loc 1 944 21
	b	.L191
.L196:
	.loc 1 946 66
	ldr	r3, [sp, #68]
	ldr	r2, [r3, #4]
	.loc 1 946 89
	ldr	r3, [sp, #72]
	ldrb	r3, [r3, #64]	@ zero_extendqisi2
	mov	r1, r3
	.loc 1 946 105
	ldrb	r3, [sp, #76]	@ zero_extendqisi2
	add	r3, r3, r1
	.loc 1 946 21
	adds	r0, r2, r3
	movs	r3, #0
	ldr	r2, [sp, #16]
	movs	r1, #2
	bl	packetfunctions_readAddress
	.loc 1 948 48
	ldr	r3, [sp, #72]
	ldrb	r3, [r3, #64]	@ zero_extendqisi2
	adds	r3, r3, #8
	uxtb	r2, r3
	ldr	r3, [sp, #72]
	strb	r2, [r3, #64]
	.loc 1 949 21
	movs	r0, #5
	bl	idmanager_getMyID
	ldr	r3, [sp, #72]
	adds	r3, r3, #47
	mov	r2, r3
	ldr	r1, [sp, #16]
	bl	packetfunctions_mac64bToIp128b
	.loc 1 950 21
	b	.L191
.L197:
	.loc 1 952 66
	ldr	r3, [sp, #68]
	ldr	r2, [r3, #4]
	.loc 1 952 89
	ldr	r3, [sp, #72]
	ldrb	r3, [r3, #64]	@ zero_extendqisi2
	mov	r1, r3
	.loc 1 952 105
	ldrb	r3, [sp, #76]	@ zero_extendqisi2
	add	r3, r3, r1
	.loc 1 952 21
	adds	r0, r2, r3
	ldr	r3, [sp, #72]
	add	r2, r3, #47
	movs	r3, #0
	movs	r1, #3
	bl	packetfunctions_readAddress
	.loc 1 954 48
	ldr	r3, [sp, #72]
	ldrb	r3, [r3, #64]	@ zero_extendqisi2
	adds	r3, r3, #16
	uxtb	r2, r3
	ldr	r3, [sp, #72]
	strb	r2, [r3, #64]
	.loc 1 955 21
	b	.L191
.L192:
	.loc 1 957 21
	ldr	r3, [sp, #64]
	ldrb	r3, [r3]	@ zero_extendqisi2
	uxth	r3, r3
	str	r3, [sp]
	movs	r3, #10
	movs	r2, #16
	movs	r1, #18
	movs	r0, #2
	bl	openserial_printLog
	.loc 1 958 28
	movs	r3, #1
	b	.L160
.L208:
	.loc 1 927 21
	nop
.L191:
	.loc 1 962 24
	ldr	r3, [sp, #72]
	ldrb	r3, [r3, #8]	@ zero_extendqisi2
	.loc 1 962 12
	cmp	r3, #0
	beq	.L209
	.loc 1 963 31
	ldr	r3, [sp, #68]
	ldr	r2, [r3, #4]
	.loc 1 963 54
	ldr	r3, [sp, #72]
	ldrb	r3, [r3, #64]	@ zero_extendqisi2
	mov	r1, r3
	.loc 1 963 70
	ldrb	r3, [sp, #76]	@ zero_extendqisi2
	add	r3, r3, r1
	add	r3, r3, r2
	.loc 1 963 24
	ldrb	r3, [r3]
	strb	r3, [sp, #28]
	.loc 1 965 29
	ldrb	r3, [sp, #28]	@ zero_extendqisi2
	and	r3, r3, #248
	.loc 1 965 16
	cmp	r3, #240
	bne	.L209
	.loc 1 966 42
	ldr	r3, [sp, #72]
	movs	r2, #17
	strb	r2, [r3, #9]
	.loc 1 962 12
	b	.L209
.L157:
	.loc 1 973 12
	ldrb	r3, [sp, #31]	@ zero_extendqisi2
	cmp	r3, #1
	bne	.L199
	.loc 1 974 40
	ldr	r3, [sp, #68]
	ldr	r2, [r3, #4]
	.loc 1 974 63
	ldr	r3, [sp, #72]
	ldrb	r3, [r3, #64]	@ zero_extendqisi2
	mov	r1, r3
	.loc 1 974 79
	ldrb	r3, [sp, #76]	@ zero_extendqisi2
	add	r3, r3, r1
	.loc 1 974 24
	add	r3, r3, r2
	.loc 1 974 21
	ldrb	r3, [r3]
	strb	r3, [sp, #30]
	.loc 1 975 26
	ldrb	r3, [sp, #30]	@ zero_extendqisi2
	and	r3, r3, #224
	.loc 1 975 16
	cmp	r3, #160
	bne	.L199
	.loc 1 977 31
	ldrb	r3, [sp, #30]
	and	r3, r3, #31
	strb	r3, [sp, #29]
	.loc 1 978 44
	ldr	r3, [sp, #72]
	ldrb	r3, [r3, #64]	@ zero_extendqisi2
	adds	r3, r3, #1
	uxtb	r2, r3
	ldr	r3, [sp, #72]
	strb	r2, [r3, #64]
	.loc 1 979 44
	ldr	r3, [sp, #68]
	ldr	r2, [r3, #4]
	.loc 1 979 67
	ldr	r3, [sp, #72]
	ldrb	r3, [r3, #64]	@ zero_extendqisi2
	mov	r1, r3
	.loc 1 979 83
	ldrb	r3, [sp, #76]	@ zero_extendqisi2
	add	r3, r3, r1
	.loc 1 979 28
	add	r3, r3, r2
	.loc 1 979 25
	ldrb	r3, [r3]
	strb	r3, [sp, #30]
	.loc 1 980 20
	ldrb	r3, [sp, #30]	@ zero_extendqisi2
	cmp	r3, #6
	bne	.L199
	.loc 1 982 48
	ldr	r3, [sp, #72]
	ldrb	r3, [r3, #64]	@ zero_extendqisi2
	adds	r3, r3, #1
	uxtb	r2, r3
	ldr	r3, [sp, #72]
	strb	r2, [r3, #64]
	.loc 1 983 63
	ldr	r3, [sp, #68]
	ldr	r2, [r3, #4]
	.loc 1 983 86
	ldr	r3, [sp, #72]
	ldrb	r3, [r3, #64]	@ zero_extendqisi2
	mov	r1, r3
	.loc 1 983 102
	ldrb	r3, [sp, #76]	@ zero_extendqisi2
	add	r3, r3, r1
	.loc 1 983 47
	add	r3, r3, r2
	.loc 1 983 46
	ldrb	r2, [r3]	@ zero_extendqisi2
	.loc 1 983 44
	ldr	r3, [sp, #72]
	strb	r2, [r3, #28]
	.loc 1 984 48
	ldr	r3, [sp, #72]
	ldrb	r3, [r3, #64]	@ zero_extendqisi2
	adds	r3, r3, #1
	uxtb	r2, r3
	ldr	r3, [sp, #72]
	strb	r2, [r3, #64]
	.loc 1 987 44
	ldr	r3, [sp, #72]
	movs	r2, #0
	strb	r2, [r3, #47]
	.loc 1 988 28
	ldr	r3, [sp, #72]
	adds	r3, r3, #48
	.loc 1 988 21
	movs	r2, #16
	movs	r1, #0
	mov	r0, r3
	bl	memset
	.loc 1 989 24
	ldrb	r3, [sp, #29]	@ zero_extendqisi2
	cmp	r3, #1
	bne	.L201
	.loc 1 991 32
	ldr	r3, [sp, #72]
	adds	r3, r3, #30
	.loc 1 991 25
	movs	r2, #17
	movs	r1, #0
	mov	r0, r3
	bl	memset
	.loc 1 992 25
	movs	r0, #5
	bl	idmanager_getMyID
	ldr	r3, [sp, #72]
	adds	r3, r3, #30
	mov	r2, r3
	ldr	r1, .L210+4
	bl	packetfunctions_mac64bToIp128b
	b	.L199
.L201:
	.loc 1 996 47
	ldrb	r3, [sp, #29]	@ zero_extendqisi2
	subs	r3, r3, #1
	.loc 1 996 25
	cmp	r3, #8
	beq	.L202
	cmp	r3, #16
	bne	.L203
	.loc 1 1000 58
	ldr	r3, [sp, #68]
	ldr	r2, [r3, #4]
	.loc 1 1000 81
	ldr	r3, [sp, #72]
	ldrb	r3, [r3, #64]	@ zero_extendqisi2
	mov	r1, r3
	.loc 1 1000 97
	ldrb	r3, [sp, #76]	@ zero_extendqisi2
	add	r3, r3, r1
	.loc 1 999 33
	adds	r0, r2, r3
	ldr	r3, [sp, #72]
	add	r2, r3, #30
	movs	r3, #0
	movs	r1, #3
	bl	packetfunctions_readAddress
	.loc 1 1002 60
	ldr	r3, [sp, #72]
	ldrb	r3, [r3, #64]	@ zero_extendqisi2
	adds	r3, r3, #16
	uxtb	r2, r3
	ldr	r3, [sp, #72]
	strb	r2, [r3, #64]
	.loc 1 1003 33
	b	.L199
.L211:
	.align	2
.L210:
	.word	all_routers_multicast
	.word	dagroot_mac64b
.L202:
	.loc 1 1007 58
	ldr	r3, [sp, #68]
	ldr	r2, [r3, #4]
	.loc 1 1007 81
	ldr	r3, [sp, #72]
	ldrb	r3, [r3, #64]	@ zero_extendqisi2
	mov	r1, r3
	.loc 1 1007 97
	ldrb	r3, [sp, #76]	@ zero_extendqisi2
	add	r3, r3, r1
	.loc 1 1006 33
	adds	r0, r2, r3
	movs	r3, #0
	ldr	r2, [sp, #16]
	movs	r1, #2
	bl	packetfunctions_readAddress
	.loc 1 1009 60
	ldr	r3, [sp, #72]
	ldrb	r3, [r3, #64]	@ zero_extendqisi2
	adds	r3, r3, #8
	uxtb	r2, r3
	ldr	r3, [sp, #72]
	strb	r2, [r3, #64]
	.loc 1 1010 33
	movs	r0, #5
	bl	idmanager_getMyID
	ldr	r3, [sp, #72]
	adds	r3, r3, #30
	mov	r2, r3
	ldr	r1, [sp, #16]
	bl	packetfunctions_mac64bToIp128b
	.loc 1 1012 33
	b	.L199
.L203:
	.loc 1 1015 33
	ldrb	r3, [sp, #29]	@ zero_extendqisi2
	uxth	r3, r3
	subs	r3, r3, #1
	uxth	r3, r3
	str	r3, [sp]
	movs	r3, #12
	movs	r2, #16
	movs	r1, #18
	movs	r0, #2
	bl	openserial_printLog
	.loc 1 1018 40
	movs	r3, #1
	b	.L160
.L209:
	.loc 1 962 12
	nop
.L199:
	.loc 1 1029 12
	movs	r3, #0
.L160:
	.loc 1 1030 1
	mov	r0, r3
	add	sp, sp, #36
.LCFI20:
	@ sp needed
	pop	{r4, r5, pc}
.LFE122:
	.size	iphc_retrieveIphcHeader, .-iphc_retrieveIphcHeader
	.section	.text.iphc_prependIPv6HopByHopHeader,"ax",%progbits
	.align	1
	.global	iphc_prependIPv6HopByHopHeader
	.syntax unified
	.thumb
	.thumb_func
	.type	iphc_prependIPv6HopByHopHeader, %function
iphc_prependIPv6HopByHopHeader:
.LFB123:
	.loc 1 1043 113
	@ args = 0, pretend = 0, frame = 24
	@ frame_needed = 0, uses_anonymous_args = 0
	push	{lr}
.LCFI21:
	sub	sp, sp, #28
.LCFI22:
	str	r0, [sp, #12]
	mov	r3, r1
	str	r2, [sp, #4]
	strb	r3, [sp, #11]
	.loc 1 1046 20
	ldr	r3, [sp, #4]
	ldrb	r3, [r3, #1]	@ zero_extendqisi2
	.loc 1 1046 28
	and	r3, r3, #1
	.loc 1 1046 8
	cmp	r3, #0
	bne	.L213
	.loc 1 1047 13
	movs	r1, #2
	ldr	r0, [sp, #12]
	bl	packetfunctions_reserveHeader
	mov	r3, r0
	.loc 1 1047 12
	cmp	r3, #1
	bne	.L214
	.loc 1 1048 20
	movs	r3, #1
	b	.L215
.L214:
	.loc 1 1050 51
	ldr	r3, [sp, #4]
	ldrh	r3, [r3, #3]	@ unaligned
	uxth	r3, r3
	.loc 1 1050 74
	lsrs	r3, r3, #8
	uxth	r2, r3
	.loc 1 1050 10
	ldr	r3, [sp, #12]
	ldr	r3, [r3]
	.loc 1 1050 15
	ldr	r3, [r3, #4]
	.loc 1 1050 30
	uxtb	r2, r2
	.loc 1 1050 28
	strb	r2, [r3]
	.loc 1 1051 50
	ldr	r3, [sp, #4]
	ldrh	r3, [r3, #3]	@ unaligned
	uxth	r2, r3
	.loc 1 1051 10
	ldr	r3, [sp, #12]
	ldr	r3, [r3]
	.loc 1 1051 15
	ldr	r3, [r3, #4]
	.loc 1 1051 24
	adds	r3, r3, #1
	.loc 1 1051 30
	uxtb	r2, r2
	.loc 1 1051 28
	strb	r2, [r3]
	b	.L216
.L213:
	.loc 1 1053 13
	movs	r1, #1
	ldr	r0, [sp, #12]
	bl	packetfunctions_reserveHeader
	mov	r3, r0
	.loc 1 1053 12
	cmp	r3, #1
	bne	.L217
	.loc 1 1054 20
	movs	r3, #1
	b	.L215
.L217:
	.loc 1 1056 65
	ldr	r3, [sp, #4]
	ldrh	r3, [r3, #3]	@ unaligned
	uxth	r3, r3
	.loc 1 1056 88
	lsrs	r3, r3, #8
	uxth	r2, r3
	.loc 1 1056 25
	ldr	r3, [sp, #12]
	ldr	r3, [r3]
	.loc 1 1056 30
	ldr	r3, [r3, #4]
	.loc 1 1056 44
	uxtb	r2, r2
	.loc 1 1056 42
	strb	r2, [r3]
.L216:
	.loc 1 1059 20
	ldr	r3, [sp, #4]
	ldrb	r3, [r3, #1]	@ zero_extendqisi2
	.loc 1 1059 28
	and	r3, r3, #2
	.loc 1 1059 8
	cmp	r3, #0
	bne	.L218
	.loc 1 1060 13
	movs	r1, #1
	ldr	r0, [sp, #12]
	bl	packetfunctions_reserveHeader
	mov	r3, r0
	.loc 1 1060 12
	cmp	r3, #1
	bne	.L219
	.loc 1 1061 20
	movs	r3, #1
	b	.L215
.L219:
	.loc 1 1063 25
	ldr	r3, [sp, #12]
	ldr	r3, [r3]
	.loc 1 1063 30
	ldr	r3, [r3, #4]
	.loc 1 1063 54
	ldr	r2, [sp, #4]
	ldrb	r2, [r2, #2]	@ zero_extendqisi2
	.loc 1 1063 42
	strb	r2, [r3]
.L218:
	.loc 1 1066 9
	movs	r1, #1
	ldr	r0, [sp, #12]
	bl	packetfunctions_reserveHeader
	mov	r3, r0
	.loc 1 1066 8
	cmp	r3, #1
	bne	.L220
	.loc 1 1067 16
	movs	r3, #1
	b	.L215
.L220:
	.loc 1 1069 21
	ldr	r3, [sp, #12]
	ldr	r3, [r3]
	.loc 1 1069 26
	ldr	r3, [r3, #4]
	.loc 1 1069 38
	movs	r2, #5
	strb	r2, [r3]
	.loc 1 1071 42
	ldr	r3, [sp, #4]
	ldrb	r3, [r3, #1]	@ zero_extendqisi2
	.loc 1 1071 13
	orn	r3, r3, #127
	strb	r3, [sp, #23]
	.loc 1 1072 9
	movs	r1, #1
	ldr	r0, [sp, #12]
	bl	packetfunctions_reserveHeader
	mov	r3, r0
	.loc 1 1072 8
	cmp	r3, #1
	bne	.L221
	.loc 1 1073 16
	movs	r3, #1
	b	.L215
.L221:
	.loc 1 1075 21
	ldr	r3, [sp, #12]
	ldr	r3, [r3]
	.loc 1 1075 26
	ldr	r3, [r3, #4]
	.loc 1 1075 38
	ldrb	r2, [sp, #23]
	strb	r2, [r3]
	.loc 1 1077 12
	movs	r3, #0
.L215:
	.loc 1 1078 1
	mov	r0, r3
	add	sp, sp, #28
.LCFI23:
	@ sp needed
	ldr	pc, [sp], #4
.LFE123:
	.size	iphc_prependIPv6HopByHopHeader, .-iphc_prependIPv6HopByHopHeader
	.section	.text.iphc_retrieveIPv6HopByHopHeader,"ax",%progbits
	.align	1
	.global	iphc_retrieveIPv6HopByHopHeader
	.syntax unified
	.thumb
	.thumb_func
	.type	iphc_retrieveIPv6HopByHopHeader, %function
iphc_retrieveIPv6HopByHopHeader:
.LFB124:
	.loc 1 1175 91
	@ args = 0, pretend = 0, frame = 16
	@ frame_needed = 0, uses_anonymous_args = 0
	push	{lr}
.LCFI24:
	sub	sp, sp, #28
.LCFI25:
	str	r0, [sp, #12]
	str	r1, [sp, #8]
	.loc 1 1181 12
	movs	r3, #0
	strb	r3, [sp, #23]
	.loc 1 1183 33
	ldr	r3, [sp, #12]
	ldr	r2, [r3, #4]
	.loc 1 1183 44
	ldrb	r3, [sp, #23]	@ zero_extendqisi2
	add	r3, r3, r2
	.loc 1 1183 13
	ldrb	r3, [r3]
	strb	r3, [sp, #22]
	.loc 1 1184 30
	ldr	r3, [sp, #12]
	ldr	r2, [r3, #4]
	.loc 1 1184 50
	ldrb	r3, [sp, #23]	@ zero_extendqisi2
	adds	r3, r3, #1
	add	r3, r3, r2
	.loc 1 1184 10
	ldrb	r3, [r3]
	strb	r3, [sp, #21]
	.loc 1 1187 22
	ldrb	r3, [sp, #22]	@ zero_extendqisi2
	and	r3, r3, #224
	.loc 1 1186 8
	cmp	r3, #128
	bne	.L223
	.loc 1 1187 61
	ldrb	r3, [sp, #21]	@ zero_extendqisi2
	cmp	r3, #5
	bne	.L223
	.loc 1 1191 16
	ldrb	r3, [sp, #23]
	adds	r3, r3, #2
	strb	r3, [sp, #23]
	.loc 1 1193 29
	ldrb	r3, [sp, #22]
	and	r3, r3, #31
	uxtb	r2, r3
	.loc 1 1193 27
	ldr	r3, [sp, #8]
	strb	r2, [r3, #1]
	.loc 1 1195 22
	ldrb	r3, [sp, #22]	@ zero_extendqisi2
	and	r3, r3, #2
	.loc 1 1195 12
	cmp	r3, #0
	bne	.L224
	.loc 1 1196 59
	ldr	r3, [sp, #12]
	ldr	r2, [r3, #4]
	.loc 1 1196 70
	ldrb	r3, [sp, #23]	@ zero_extendqisi2
	add	r3, r3, r2
	.loc 1 1196 41
	ldrb	r2, [r3]	@ zero_extendqisi2
	.loc 1 1196 39
	ldr	r3, [sp, #8]
	strb	r2, [r3, #2]
	.loc 1 1197 20
	ldrb	r3, [sp, #23]
	adds	r3, r3, #1
	strb	r3, [sp, #23]
	b	.L225
.L224:
	.loc 1 1200 39
	ldr	r3, [sp, #8]
	movs	r2, #0
	strb	r2, [r3, #2]
.L225:
	.loc 1 1203 22
	ldrb	r3, [sp, #22]	@ zero_extendqisi2
	and	r3, r3, #1
	.loc 1 1203 12
	cmp	r3, #0
	bne	.L226
	.loc 1 1204 56
	ldr	r3, [sp, #12]
	ldr	r2, [r3, #4]
	.loc 1 1204 67
	ldrb	r3, [sp, #23]	@ zero_extendqisi2
	add	r3, r3, r2
	.loc 1 1204 38
	ldrb	r3, [r3]	@ zero_extendqisi2
	uxth	r2, r3
	.loc 1 1204 36
	ldr	r3, [sp, #8]
	strh	r2, [r3, #3]	@ unaligned
	.loc 1 1205 50
	ldr	r3, [sp, #8]
	ldrh	r3, [r3, #3]	@ unaligned
	uxth	r3, r3
	.loc 1 1205 64
	lsls	r3, r3, #8
	uxth	r2, r3
	.loc 1 1205 90
	ldr	r3, [sp, #12]
	ldr	r1, [r3, #4]
	.loc 1 1205 110
	ldrb	r3, [sp, #23]	@ zero_extendqisi2
	adds	r3, r3, #1
	add	r3, r3, r1
	.loc 1 1205 72
	ldrb	r3, [r3]	@ zero_extendqisi2
	uxth	r3, r3
	.loc 1 1205 70
	add	r3, r3, r2
	uxth	r2, r3
	.loc 1 1205 36
	ldr	r3, [sp, #8]
	strh	r2, [r3, #3]	@ unaligned
	.loc 1 1206 20
	ldrb	r3, [sp, #23]
	adds	r3, r3, #2
	strb	r3, [sp, #23]
	.loc 1 1203 12
	b	.L228
.L226:
	.loc 1 1208 56
	ldr	r3, [sp, #12]
	ldr	r2, [r3, #4]
	.loc 1 1208 67
	ldrb	r3, [sp, #23]	@ zero_extendqisi2
	add	r3, r3, r2
	.loc 1 1208 38
	ldrb	r3, [r3]	@ zero_extendqisi2
	uxth	r2, r3
	.loc 1 1208 36
	ldr	r3, [sp, #8]
	strh	r2, [r3, #3]	@ unaligned
	.loc 1 1209 48
	ldr	r3, [sp, #8]
	ldrh	r3, [r3, #3]	@ unaligned
	uxth	r3, r3
	.loc 1 1209 36
	lsls	r3, r3, #8
	uxth	r2, r3
	ldr	r3, [sp, #8]
	strh	r2, [r3, #3]	@ unaligned
	.loc 1 1210 20
	ldrb	r3, [sp, #23]
	adds	r3, r3, #1
	strb	r3, [sp, #23]
	.loc 1 1203 12
	b	.L228
.L223:
	.loc 1 1213 9
	ldrb	r3, [sp, #21]	@ zero_extendqisi2
	uxth	r3, r3
	str	r3, [sp]
	movs	r3, #14
	movs	r2, #16
	movs	r1, #18
	movs	r0, #2
	bl	openserial_printLog
.L228:
	.loc 1 1215 12
	ldrb	r3, [sp, #23]	@ zero_extendqisi2
	.loc 1 1216 1
	mov	r0, r3
	add	sp, sp, #28
.LCFI26:
	@ sp needed
	ldr	pc, [sp], #4
.LFE124:
	.size	iphc_retrieveIPv6HopByHopHeader, .-iphc_retrieveIPv6HopByHopHeader
	.section	.debug_frame,"",%progbits
.Lframe0:
	.4byte	.LECIE0-.LSCIE0
.LSCIE0:
	.4byte	0xffffffff
	.byte	0x3
	.ascii	"\000"
	.uleb128 0x1
	.sleb128 -4
	.uleb128 0xe
	.byte	0xc
	.uleb128 0xd
	.uleb128 0
	.align	2
.LECIE0:
.LSFDE0:
	.4byte	.LEFDE0-.LASFDE0
.LASFDE0:
	.4byte	.Lframe0
	.4byte	.LFB115
	.4byte	.LFE115-.LFB115
	.align	2
.LEFDE0:
.LSFDE2:
	.4byte	.LEFDE2-.LASFDE2
.LASFDE2:
	.4byte	.Lframe0
	.4byte	.LFB116
	.4byte	.LFE116-.LFB116
	.byte	0x4
	.4byte	.LCFI0-.LFB116
	.byte	0xe
	.uleb128 0x4
	.byte	0x8e
	.uleb128 0x1
	.byte	0x4
	.4byte	.LCFI1-.LCFI0
	.byte	0xe
	.uleb128 0x88
	.byte	0x4
	.4byte	.LCFI2-.LCFI1
	.byte	0xe
	.uleb128 0x4
	.align	2
.LEFDE2:
.LSFDE4:
	.4byte	.LEFDE4-.LASFDE4
.LASFDE4:
	.4byte	.Lframe0
	.4byte	.LFB117
	.4byte	.LFE117-.LFB117
	.byte	0x4
	.4byte	.LCFI3-.LFB117
	.byte	0xe
	.uleb128 0x4
	.byte	0x8e
	.uleb128 0x1
	.byte	0x4
	.4byte	.LCFI4-.LCFI3
	.byte	0xe
	.uleb128 0x18
	.byte	0x4
	.4byte	.LCFI5-.LCFI4
	.byte	0xe
	.uleb128 0x4
	.align	2
.LEFDE4:
.LSFDE6:
	.4byte	.LEFDE6-.LASFDE6
.LASFDE6:
	.4byte	.Lframe0
	.4byte	.LFB118
	.4byte	.LFE118-.LFB118
	.byte	0x4
	.4byte	.LCFI6-.LFB118
	.byte	0xe
	.uleb128 0x4
	.byte	0x8e
	.uleb128 0x1
	.byte	0x4
	.4byte	.LCFI7-.LCFI6
	.byte	0xe
	.uleb128 0x10
	.byte	0x4
	.4byte	.LCFI8-.LCFI7
	.byte	0xe
	.uleb128 0x4
	.align	2
.LEFDE6:
.LSFDE8:
	.4byte	.LEFDE8-.LASFDE8
.LASFDE8:
	.4byte	.Lframe0
	.4byte	.LFB119
	.4byte	.LFE119-.LFB119
	.byte	0x4
	.4byte	.LCFI9-.LFB119
	.byte	0xe
	.uleb128 0x4
	.byte	0x8e
	.uleb128 0x1
	.byte	0x4
	.4byte	.LCFI10-.LCFI9
	.byte	0xe
	.uleb128 0xa8
	.byte	0x4
	.4byte	.LCFI11-.LCFI10
	.byte	0xe
	.uleb128 0x4
	.align	2
.LEFDE8:
.LSFDE10:
	.4byte	.LEFDE10-.LASFDE10
.LASFDE10:
	.4byte	.Lframe0
	.4byte	.LFB120
	.4byte	.LFE120-.LFB120
	.byte	0x4
	.4byte	.LCFI12-.LFB120
	.byte	0xe
	.uleb128 0x4
	.byte	0x8e
	.uleb128 0x1
	.byte	0x4
	.4byte	.LCFI13-.LCFI12
	.byte	0xe
	.uleb128 0x28
	.byte	0x4
	.4byte	.LCFI14-.LCFI13
	.byte	0xe
	.uleb128 0x4
	.align	2
.LEFDE10:
.LSFDE12:
	.4byte	.LEFDE12-.LASFDE12
.LASFDE12:
	.4byte	.Lframe0
	.4byte	.LFB121
	.4byte	.LFE121-.LFB121
	.byte	0x4
	.4byte	.LCFI15-.LFB121
	.byte	0xe
	.uleb128 0x8
	.byte	0x84
	.uleb128 0x2
	.byte	0x8e
	.uleb128 0x1
	.byte	0x4
	.4byte	.LCFI16-.LCFI15
	.byte	0xe
	.uleb128 0x70
	.byte	0x4
	.4byte	.LCFI17-.LCFI16
	.byte	0xe
	.uleb128 0x8
	.align	2
.LEFDE12:
.LSFDE14:
	.4byte	.LEFDE14-.LASFDE14
.LASFDE14:
	.4byte	.Lframe0
	.4byte	.LFB122
	.4byte	.LFE122-.LFB122
	.byte	0x4
	.4byte	.LCFI18-.LFB122
	.byte	0xe
	.uleb128 0xc
	.byte	0x84
	.uleb128 0x3
	.byte	0x85
	.uleb128 0x2
	.byte	0x8e
	.uleb128 0x1
	.byte	0x4
	.4byte	.LCFI19-.LCFI18
	.byte	0xe
	.uleb128 0x30
	.byte	0x4
	.4byte	.LCFI20-.LCFI19
	.byte	0xe
	.uleb128 0xc
	.align	2
.LEFDE14:
.LSFDE16:
	.4byte	.LEFDE16-.LASFDE16
.LASFDE16:
	.4byte	.Lframe0
	.4byte	.LFB123
	.4byte	.LFE123-.LFB123
	.byte	0x4
	.4byte	.LCFI21-.LFB123
	.byte	0xe
	.uleb128 0x4
	.byte	0x8e
	.uleb128 0x1
	.byte	0x4
	.4byte	.LCFI22-.LCFI21
	.byte	0xe
	.uleb128 0x20
	.byte	0x4
	.4byte	.LCFI23-.LCFI22
	.byte	0xe
	.uleb128 0x4
	.align	2
.LEFDE16:
.LSFDE18:
	.4byte	.LEFDE18-.LASFDE18
.LASFDE18:
	.4byte	.Lframe0
	.4byte	.LFB124
	.4byte	.LFE124-.LFB124
	.byte	0x4
	.4byte	.LCFI24-.LFB124
	.byte	0xe
	.uleb128 0x4
	.byte	0x8e
	.uleb128 0x1
	.byte	0x4
	.4byte	.LCFI25-.LCFI24
	.byte	0xe
	.uleb128 0x20
	.byte	0x4
	.4byte	.LCFI26-.LCFI25
	.byte	0xe
	.uleb128 0x4
	.align	2
.LEFDE18:
	.text
.Letext0:
	.file 2 "C:/Program Files/SEGGER/SEGGER Embedded Studio for ARM 6.30/include/stdint.h"
	.file 3 "C:/Program Files/SEGGER/SEGGER Embedded Studio for ARM 6.30/include/string.h"
	.file 4 "../../bsp/boards/nrf52840_dk/board_info.h"
	.file 5 "../../inc/opendefs.h"
	.file 6 "C:\\Users\\16603\\Desktop\\HKUSTGZ\\IOTA5109-WSN\\openwsnProj\\mywsn\\openstack\\03a-IPHC\\iphc.h"
	.file 7 "../../openstack/cross-layers/idmanager.h"
	.file 8 "../../drivers/common/openserial.h"
	.file 9 "../../openstack/02a-MAClow/IEEE802154E.h"
	.file 10 "../../openstack/03b-IPv6/forwarding.h"
	.file 11 "../../openstack/03b-IPv6/icmpv6rpl.h"
	.file 12 "../../openstack/cross-layers/packetfunctions.h"
	.file 13 "C:\\Users\\16603\\Desktop\\HKUSTGZ\\IOTA5109-WSN\\openwsnProj\\mywsn\\openstack\\03a-IPHC\\openbridge.h"
	.file 14 "../../openstack/cross-layers/openqueue.h"
	.file 15 "../../openstack/02b-MAChigh/sixtop.h"